###############################################################################
#
# IAR ELF Linker V7.60.1.11101/W32 for ARM                13/May/2024  16:07:01
# Copyright 2007-2016 IAR Systems AB.
#
#    Output file  =  
#        E:\Today\240513_Limiter_Release_0513\V3.3.2.3_CC_Limiter_V2.0_ADC\EWARM\Mini_DTG\Exe\Mini_DTG.out
#    Map file     =  
#        E:\Today\240513_Limiter_Release_0513\V3.3.2.3_CC_Limiter_V2.0_ADC\EWARM\Mini_DTG\List\Mini_DTG.map
#    Command line =  
#        E:\Today\240513_Limiter_Release_0513\V3.3.2.3_CC_Limiter_V2.0_ADC\EWARM\Mini_DTG\Obj\adc.o
#        E:\Today\240513_Limiter_Release_0513\V3.3.2.3_CC_Limiter_V2.0_ADC\EWARM\Mini_DTG\Obj\ble.o
#        E:\Today\240513_Limiter_Release_0513\V3.3.2.3_CC_Limiter_V2.0_ADC\EWARM\Mini_DTG\Obj\bsp_int.o
#        E:\Today\240513_Limiter_Release_0513\V3.3.2.3_CC_Limiter_V2.0_ADC\EWARM\Mini_DTG\Obj\can.o
#        E:\Today\240513_Limiter_Release_0513\V3.3.2.3_CC_Limiter_V2.0_ADC\EWARM\Mini_DTG\Obj\cli.o
#        E:\Today\240513_Limiter_Release_0513\V3.3.2.3_CC_Limiter_V2.0_ADC\EWARM\Mini_DTG\Obj\cmsis_os.o
#        E:\Today\240513_Limiter_Release_0513\V3.3.2.3_CC_Limiter_V2.0_ADC\EWARM\Mini_DTG\Obj\croutine.o
#        E:\Today\240513_Limiter_Release_0513\V3.3.2.3_CC_Limiter_V2.0_ADC\EWARM\Mini_DTG\Obj\debug.o
#        E:\Today\240513_Limiter_Release_0513\V3.3.2.3_CC_Limiter_V2.0_ADC\EWARM\Mini_DTG\Obj\delay.o
#        E:\Today\240513_Limiter_Release_0513\V3.3.2.3_CC_Limiter_V2.0_ADC\EWARM\Mini_DTG\Obj\diskio.o
#        E:\Today\240513_Limiter_Release_0513\V3.3.2.3_CC_Limiter_V2.0_ADC\EWARM\Mini_DTG\Obj\dtg.o
#        E:\Today\240513_Limiter_Release_0513\V3.3.2.3_CC_Limiter_V2.0_ADC\EWARM\Mini_DTG\Obj\event_groups.o
#        E:\Today\240513_Limiter_Release_0513\V3.3.2.3_CC_Limiter_V2.0_ADC\EWARM\Mini_DTG\Obj\extern.o
#        E:\Today\240513_Limiter_Release_0513\V3.3.2.3_CC_Limiter_V2.0_ADC\EWARM\Mini_DTG\Obj\fatfs.o
#        E:\Today\240513_Limiter_Release_0513\V3.3.2.3_CC_Limiter_V2.0_ADC\EWARM\Mini_DTG\Obj\ff.o
#        E:\Today\240513_Limiter_Release_0513\V3.3.2.3_CC_Limiter_V2.0_ADC\EWARM\Mini_DTG\Obj\ff_gen_drv.o
#        E:\Today\240513_Limiter_Release_0513\V3.3.2.3_CC_Limiter_V2.0_ADC\EWARM\Mini_DTG\Obj\freertos.o
#        E:\Today\240513_Limiter_Release_0513\V3.3.2.3_CC_Limiter_V2.0_ADC\EWARM\Mini_DTG\Obj\fsmc_nand.o
#        E:\Today\240513_Limiter_Release_0513\V3.3.2.3_CC_Limiter_V2.0_ADC\EWARM\Mini_DTG\Obj\gui.o
#        E:\Today\240513_Limiter_Release_0513\V3.3.2.3_CC_Limiter_V2.0_ADC\EWARM\Mini_DTG\Obj\heap_4.o
#        E:\Today\240513_Limiter_Release_0513\V3.3.2.3_CC_Limiter_V2.0_ADC\EWARM\Mini_DTG\Obj\i2c_fram.o
#        E:\Today\240513_Limiter_Release_0513\V3.3.2.3_CC_Limiter_V2.0_ADC\EWARM\Mini_DTG\Obj\i2c_gsensor.o
#        E:\Today\240513_Limiter_Release_0513\V3.3.2.3_CC_Limiter_V2.0_ADC\EWARM\Mini_DTG\Obj\i2c_lcd.o
#        E:\Today\240513_Limiter_Release_0513\V3.3.2.3_CC_Limiter_V2.0_ADC\EWARM\Mini_DTG\Obj\list.o
#        E:\Today\240513_Limiter_Release_0513\V3.3.2.3_CC_Limiter_V2.0_ADC\EWARM\Mini_DTG\Obj\main.o
#        E:\Today\240513_Limiter_Release_0513\V3.3.2.3_CC_Limiter_V2.0_ADC\EWARM\Mini_DTG\Obj\modem.o
#        E:\Today\240513_Limiter_Release_0513\V3.3.2.3_CC_Limiter_V2.0_ADC\EWARM\Mini_DTG\Obj\modem_Loop.o
#        E:\Today\240513_Limiter_Release_0513\V3.3.2.3_CC_Limiter_V2.0_ADC\EWARM\Mini_DTG\Obj\modem_sms.o
#        E:\Today\240513_Limiter_Release_0513\V3.3.2.3_CC_Limiter_V2.0_ADC\EWARM\Mini_DTG\Obj\modem_tool.o
#        E:\Today\240513_Limiter_Release_0513\V3.3.2.3_CC_Limiter_V2.0_ADC\EWARM\Mini_DTG\Obj\nmeap.o
#        E:\Today\240513_Limiter_Release_0513\V3.3.2.3_CC_Limiter_V2.0_ADC\EWARM\Mini_DTG\Obj\port.o
#        E:\Today\240513_Limiter_Release_0513\V3.3.2.3_CC_Limiter_V2.0_ADC\EWARM\Mini_DTG\Obj\portasm.o
#        E:\Today\240513_Limiter_Release_0513\V3.3.2.3_CC_Limiter_V2.0_ADC\EWARM\Mini_DTG\Obj\queue.o
#        E:\Today\240513_Limiter_Release_0513\V3.3.2.3_CC_Limiter_V2.0_ADC\EWARM\Mini_DTG\Obj\rtc.o
#        E:\Today\240513_Limiter_Release_0513\V3.3.2.3_CC_Limiter_V2.0_ADC\EWARM\Mini_DTG\Obj\spi_flash.o
#        E:\Today\240513_Limiter_Release_0513\V3.3.2.3_CC_Limiter_V2.0_ADC\EWARM\Mini_DTG\Obj\startup_stm32f407xx.o
#        E:\Today\240513_Limiter_Release_0513\V3.3.2.3_CC_Limiter_V2.0_ADC\EWARM\Mini_DTG\Obj\stm32f4xx_hal.o
#        E:\Today\240513_Limiter_Release_0513\V3.3.2.3_CC_Limiter_V2.0_ADC\EWARM\Mini_DTG\Obj\stm32f4xx_hal_adc.o
#        E:\Today\240513_Limiter_Release_0513\V3.3.2.3_CC_Limiter_V2.0_ADC\EWARM\Mini_DTG\Obj\stm32f4xx_hal_adc_ex.o
#        E:\Today\240513_Limiter_Release_0513\V3.3.2.3_CC_Limiter_V2.0_ADC\EWARM\Mini_DTG\Obj\stm32f4xx_hal_can.o
#        E:\Today\240513_Limiter_Release_0513\V3.3.2.3_CC_Limiter_V2.0_ADC\EWARM\Mini_DTG\Obj\stm32f4xx_hal_cortex.o
#        E:\Today\240513_Limiter_Release_0513\V3.3.2.3_CC_Limiter_V2.0_ADC\EWARM\Mini_DTG\Obj\stm32f4xx_hal_dma.o
#        E:\Today\240513_Limiter_Release_0513\V3.3.2.3_CC_Limiter_V2.0_ADC\EWARM\Mini_DTG\Obj\stm32f4xx_hal_dma_ex.o
#        E:\Today\240513_Limiter_Release_0513\V3.3.2.3_CC_Limiter_V2.0_ADC\EWARM\Mini_DTG\Obj\stm32f4xx_hal_flash.o
#        E:\Today\240513_Limiter_Release_0513\V3.3.2.3_CC_Limiter_V2.0_ADC\EWARM\Mini_DTG\Obj\stm32f4xx_hal_flash_ex.o
#        E:\Today\240513_Limiter_Release_0513\V3.3.2.3_CC_Limiter_V2.0_ADC\EWARM\Mini_DTG\Obj\stm32f4xx_hal_flash_ramfunc.o
#        E:\Today\240513_Limiter_Release_0513\V3.3.2.3_CC_Limiter_V2.0_ADC\EWARM\Mini_DTG\Obj\stm32f4xx_hal_gpio.o
#        E:\Today\240513_Limiter_Release_0513\V3.3.2.3_CC_Limiter_V2.0_ADC\EWARM\Mini_DTG\Obj\stm32f4xx_hal_hcd.o
#        E:\Today\240513_Limiter_Release_0513\V3.3.2.3_CC_Limiter_V2.0_ADC\EWARM\Mini_DTG\Obj\stm32f4xx_hal_i2c.o
#        E:\Today\240513_Limiter_Release_0513\V3.3.2.3_CC_Limiter_V2.0_ADC\EWARM\Mini_DTG\Obj\stm32f4xx_hal_i2c_ex.o
#        E:\Today\240513_Limiter_Release_0513\V3.3.2.3_CC_Limiter_V2.0_ADC\EWARM\Mini_DTG\Obj\stm32f4xx_hal_iwdg.o
#        E:\Today\240513_Limiter_Release_0513\V3.3.2.3_CC_Limiter_V2.0_ADC\EWARM\Mini_DTG\Obj\stm32f4xx_hal_msp.o
#        E:\Today\240513_Limiter_Release_0513\V3.3.2.3_CC_Limiter_V2.0_ADC\EWARM\Mini_DTG\Obj\stm32f4xx_hal_nand.o
#        E:\Today\240513_Limiter_Release_0513\V3.3.2.3_CC_Limiter_V2.0_ADC\EWARM\Mini_DTG\Obj\stm32f4xx_hal_pwr.o
#        E:\Today\240513_Limiter_Release_0513\V3.3.2.3_CC_Limiter_V2.0_ADC\EWARM\Mini_DTG\Obj\stm32f4xx_hal_pwr_ex.o
#        E:\Today\240513_Limiter_Release_0513\V3.3.2.3_CC_Limiter_V2.0_ADC\EWARM\Mini_DTG\Obj\stm32f4xx_hal_rcc.o
#        E:\Today\240513_Limiter_Release_0513\V3.3.2.3_CC_Limiter_V2.0_ADC\EWARM\Mini_DTG\Obj\stm32f4xx_hal_rcc_ex.o
#        E:\Today\240513_Limiter_Release_0513\V3.3.2.3_CC_Limiter_V2.0_ADC\EWARM\Mini_DTG\Obj\stm32f4xx_hal_rtc.o
#        E:\Today\240513_Limiter_Release_0513\V3.3.2.3_CC_Limiter_V2.0_ADC\EWARM\Mini_DTG\Obj\stm32f4xx_hal_rtc_ex.o
#        E:\Today\240513_Limiter_Release_0513\V3.3.2.3_CC_Limiter_V2.0_ADC\EWARM\Mini_DTG\Obj\stm32f4xx_hal_spi.o
#        E:\Today\240513_Limiter_Release_0513\V3.3.2.3_CC_Limiter_V2.0_ADC\EWARM\Mini_DTG\Obj\stm32f4xx_hal_tim.o
#        E:\Today\240513_Limiter_Release_0513\V3.3.2.3_CC_Limiter_V2.0_ADC\EWARM\Mini_DTG\Obj\stm32f4xx_hal_tim_ex.o
#        E:\Today\240513_Limiter_Release_0513\V3.3.2.3_CC_Limiter_V2.0_ADC\EWARM\Mini_DTG\Obj\stm32f4xx_hal_timebase_TIM.o
#        E:\Today\240513_Limiter_Release_0513\V3.3.2.3_CC_Limiter_V2.0_ADC\EWARM\Mini_DTG\Obj\stm32f4xx_hal_uart.o
#        E:\Today\240513_Limiter_Release_0513\V3.3.2.3_CC_Limiter_V2.0_ADC\EWARM\Mini_DTG\Obj\stm32f4xx_it.o
#        E:\Today\240513_Limiter_Release_0513\V3.3.2.3_CC_Limiter_V2.0_ADC\EWARM\Mini_DTG\Obj\stm32f4xx_ll_fsmc.o
#        E:\Today\240513_Limiter_Release_0513\V3.3.2.3_CC_Limiter_V2.0_ADC\EWARM\Mini_DTG\Obj\stm32f4xx_ll_usb.o
#        E:\Today\240513_Limiter_Release_0513\V3.3.2.3_CC_Limiter_V2.0_ADC\EWARM\Mini_DTG\Obj\sys_struct.o
#        E:\Today\240513_Limiter_Release_0513\V3.3.2.3_CC_Limiter_V2.0_ADC\EWARM\Mini_DTG\Obj\syscall.o
#        E:\Today\240513_Limiter_Release_0513\V3.3.2.3_CC_Limiter_V2.0_ADC\EWARM\Mini_DTG\Obj\system_stm32f4xx.o
#        E:\Today\240513_Limiter_Release_0513\V3.3.2.3_CC_Limiter_V2.0_ADC\EWARM\Mini_DTG\Obj\tasks.o
#        E:\Today\240513_Limiter_Release_0513\V3.3.2.3_CC_Limiter_V2.0_ADC\EWARM\Mini_DTG\Obj\test_jig.o
#        E:\Today\240513_Limiter_Release_0513\V3.3.2.3_CC_Limiter_V2.0_ADC\EWARM\Mini_DTG\Obj\timer.o
#        E:\Today\240513_Limiter_Release_0513\V3.3.2.3_CC_Limiter_V2.0_ADC\EWARM\Mini_DTG\Obj\timers.o
#        E:\Today\240513_Limiter_Release_0513\V3.3.2.3_CC_Limiter_V2.0_ADC\EWARM\Mini_DTG\Obj\uart.o
#        E:\Today\240513_Limiter_Release_0513\V3.3.2.3_CC_Limiter_V2.0_ADC\EWARM\Mini_DTG\Obj\usb_host.o
#        E:\Today\240513_Limiter_Release_0513\V3.3.2.3_CC_Limiter_V2.0_ADC\EWARM\Mini_DTG\Obj\usbh_conf.o
#        E:\Today\240513_Limiter_Release_0513\V3.3.2.3_CC_Limiter_V2.0_ADC\EWARM\Mini_DTG\Obj\usbh_core.o
#        E:\Today\240513_Limiter_Release_0513\V3.3.2.3_CC_Limiter_V2.0_ADC\EWARM\Mini_DTG\Obj\usbh_ctlreq.o
#        E:\Today\240513_Limiter_Release_0513\V3.3.2.3_CC_Limiter_V2.0_ADC\EWARM\Mini_DTG\Obj\usbh_diskio.o
#        E:\Today\240513_Limiter_Release_0513\V3.3.2.3_CC_Limiter_V2.0_ADC\EWARM\Mini_DTG\Obj\usbh_ioreq.o
#        E:\Today\240513_Limiter_Release_0513\V3.3.2.3_CC_Limiter_V2.0_ADC\EWARM\Mini_DTG\Obj\usbh_msc.o
#        E:\Today\240513_Limiter_Release_0513\V3.3.2.3_CC_Limiter_V2.0_ADC\EWARM\Mini_DTG\Obj\usbh_msc_bot.o
#        E:\Today\240513_Limiter_Release_0513\V3.3.2.3_CC_Limiter_V2.0_ADC\EWARM\Mini_DTG\Obj\usbh_msc_scsi.o
#        E:\Today\240513_Limiter_Release_0513\V3.3.2.3_CC_Limiter_V2.0_ADC\EWARM\Mini_DTG\Obj\usbh_pipes.o
#        E:\Today\240513_Limiter_Release_0513\V3.3.2.3_CC_Limiter_V2.0_ADC\EWARM\Mini_DTG\Obj\usbuser.o
#        --redirect _Printf=_PrintfFull --redirect _Scanf=_ScanfFull -o
#        E:\Today\240513_Limiter_Release_0513\V3.3.2.3_CC_Limiter_V2.0_ADC\EWARM\Mini_DTG\Exe\Mini_DTG.out
#        --map
#        E:\Today\240513_Limiter_Release_0513\V3.3.2.3_CC_Limiter_V2.0_ADC\EWARM\Mini_DTG\List\Mini_DTG.map
#        --config
#        E:\Today\240513_Limiter_Release_0513\V3.3.2.3_CC_Limiter_V2.0_ADC\EWARM/stm32f407xx_flash.icf
#        --semihosting --entry __iar_program_start --vfe
#
###############################################################################

*******************************************************************************
*** RUNTIME MODEL ATTRIBUTES
***

CppFlavor                     = *
__Heap_Handler                = DLMalloc
__SystemLibrary               = DLib
__dlib_dynamic_initialization = normal


*******************************************************************************
*** PLACEMENT SUMMARY
***

"A1":  place at 0x08010000 { ro section .intvec };
"P1":  place in [from 0x10000000 to 0x1000ffff] { section EXTCCRAM };
"P2":  place in [from 0x08010000 to 0x080fffff] { ro };
"P3":  place in [from 0x20000000 to 0x2001ffff] { rw, block CSTACK, block HEAP };
initialize by copy { rw, section EXTCCRAM };

  Section             Kind        Address     Size  Object
  -------             ----        -------     ----  ------
"A1":                                        0x188
  .intvec             ro code  0x08010000    0x188  startup_stm32f407xx.o [1]
                             - 0x08010188    0x188

"P2":                                      0x30dd6
  .text               ro code  0x08010188   0x3810  gui.o [1]
  .text               ro code  0x08013998    0x8ee  i2c_lcd.o [1]
  .text               ro code  0x08014286     0x1e  xsscin.o [3]
  .text               ro code  0x080142a4     0x76  ABImemcpy_unaligned.o [5]
  .text               ro code  0x0801431a      0xa  xsprout.o [3]
  .text               ro code  0x08014324     0x66  ABImemset.o [5]
  .rodata             const    0x0801438a      0x1  cli.o [1]
  .text               ro code  0x0801438c    0xae8  i2c_fram.o [1]
  .text               ro code  0x08014e74      0x8  abs.o [3]
  .text               ro code  0x08014e7c    0x3d0  rtc.o [1]
  .text               ro code  0x0801524c    0x714  main.o [1]
  .text               ro code  0x08015960   0x31a8  modem.o [1]
  .text               ro code  0x08018b08   0x2680  dtg.o [1]
  .text               ro code  0x0801b188    0x20c  cmsis_os.o [1]
  .text               ro code  0x0801b394    0x3a0  stm32f4xx_hal_gpio.o [1]
  .text               ro code  0x0801b734    0x148  timer.o [1]
  .text               ro code  0x0801b87c     0x2c  vsprintf.o [3]
  .text               ro code  0x0801b8a8     0x24  delay.o [1]
  .text               ro code  0x0801b8cc    0x654  cli.o [1]
  .text               ro code  0x0801bf20    0x650  stm32f4xx_hal_rcc.o [1]
  .text               ro code  0x0801c570    0x168  stm32f4xx_hal_rcc_ex.o [1]
  .text               ro code  0x0801c6d8      0xc  stm32f4xx_hal_pwr.o [1]
  .text               ro code  0x0801c6e4    0x1bc  stm32f4xx_hal_rtc_ex.o [1]
  .text               ro code  0x0801c8a0    0x41a  stm32f4xx_hal_rtc.o [1]
  .text               ro code  0x0801ccbc     0x34  stm32f4xx_hal_pwr_ex.o [1]
  .text               ro code  0x0801ccf0     0xf4  mktime.o [3]
  .text               ro code  0x0801cde4      0xa  gmtime.o [3]
  .text               ro code  0x0801cdf0    0xd0c  fsmc_nand.o [1]
  .text               ro code  0x0801dafc   0x1c68  can.o [1]
  .text               ro code  0x0801f764     0x74  stm32f4xx_hal.o [1]
  .text               ro code  0x0801f7d8    0x128  adc.o [1]
  .text               ro code  0x0801f900    0x2e4  uart.o [1]
  .text               ro code  0x0801fbe4    0x790  modem_tool.o [1]
  .text               ro code  0x08020374     0x64  sys_struct.o [1]
  .text               ro code  0x080203d8     0x2c  spi_flash.o [1]
  .text               ro code  0x08020404    0x168  stm32f4xx_hal_cortex.o [1]
  .text               ro code  0x0802056c     0x50  stm32f4xx_hal_iwdg.o [1]
  .text               ro code  0x080205bc    0x71c  extern.o [1]
  .text               ro code  0x08020cd8    0xadc  tasks.o [1]
  .text               ro code  0x080217b4      0x8  modem_sms.o [1]
  .text               ro code  0x080217bc     0x34  sprintf.o [3]
  .text               ro code  0x080217f0   0x1b60  modem_sms.o [1]
  .text               ro code  0x08023350   0x15e0  modem_Loop.o [1]
  .text               ro code  0x08024930   0x13d0  ble.o [1]
  .text               ro code  0x08025d00    0x1a2  DblMul.o [4]
  .text               ro code  0x08025ea4     0x58  DblToI32.o [4]
  .text               ro code  0x08025efc   0x252c  ff.o [1]
  .text               ro code  0x08028428    0x790  i2c_gsensor.o [1]
  .text               ro code  0x08028bb8    0x74c  test_jig.o [1]
  .text               ro code  0x08029304    0x470  timers.o [1]
  .text               ro code  0x08029774    0x89a  queue.o [1]
  .text               ro code  0x0802a010    0x254  port.o [1]
  .text               ro code  0x0802a264    0x2b0  bsp_int.o [1]
  .text               ro code  0x0802a514    0x962  stm32f4xx_hal_tim.o [1]
  .text               ro code  0x0802ae78     0x60  stm32f4xx_hal_tim_ex.o [1]
  .text               ro code  0x0802aed8    0x630  stm32f4xx_hal_msp.o [1]
  .text               ro code  0x0802b508   0x119e  xprintffull.o [3]
  .text               ro code  0x0802c6a8     0x24  sscanf.o [3]
  .text               ro code  0x0802c6cc     0x20  debug.o [1]
  .text               ro code  0x0802c6ec     0x42  strcmp_unaligned.o [5]
  .text               ro code  0x0802c730     0x36  strlen.o [5]
  .text               ro code  0x0802c768     0xbc  debug.o [1]
  .text               ro code  0x0802c824     0x90  stm32f4xx_hal_timebase_TIM.o [1]
  .text               ro code  0x0802c8b4     0xee  I64DivMod.o [5]
  .text               ro code  0x0802c9a4    0x1bc  xttotm.o [3]
  .text               ro code  0x0802cb60     0xa8  localtim.o [3]
  .text               ro code  0x0802cc08     0x6a  stm32f4xx_hal_nand.o [1]
  .text               ro code  0x0802cc74    0xa48  stm32f4xx_hal_can.o [1]
  .text               ro code  0x0802d6bc     0x30  I32ToDbl.o [4]
  .text               ro code  0x0802d6ec    0x50e  stm32f4xx_hal_adc.o [1]
  .text               ro code  0x0802dbfc    0x7a8  stm32f4xx_hal_uart.o [1]
  .text               ro code  0x0802e3a4    0x260  heap_4.o [1]
  .text               ro code  0x0802e604     0x98  list.o [1]
  .text               ro code  0x0802e69c      0x4  freertos.o [1]
  .text               ro code  0x0802e6a0     0x2e  strstr.o [3]
  .text               ro code  0x0802e6d0      0x6  ABImemclr4.o [5]
  .text               ro code  0x0802e6d8     0x20  srand.o [3]
  .text               ro code  0x0802e6f8     0xe0  rand.o [3]
  .text               ro code  0x0802e7d8     0xb0  diskio.o [1]
  .text               ro code  0x0802e888     0x54  fatfs.o [1]
  .text               ro code  0x0802e8dc    0x256  DblDiv.o [4]
  .text               ro code  0x0802eb34    0x180  DblSub.o [4]
  .text               ro code  0x0802ecb4     0xe8  DblAdd.o [4]
  CODE                ro code  0x0802ed9c     0xa8  portasm.o [1]
  .text               ro code  0x0802ee44    0x48c  stm32f4xx_hal_dma.o [1]
  .text               ro code  0x0802f2d0     0x20  xmbtowc.o [3]
  .text               ro code  0x0802f2f0     0x16  strchr.o [5]
  .text               ro code  0x0802f308     0x58  memchr.o [5]
  .text               ro code  0x0802f360      0xa  xmbcurmax.o [3]
  .text               ro code  0x0802f36c   0x14f4  dlmalloc.o [3]
  .text               ro code  0x08030860     0x1a  xwctomb.o [3]
  .text               ro code  0x0803087a     0x44  xdnorm.o [4]
  .text               ro code  0x080308c0     0x2e  DblCmpLe.o [4]
  .text               ro code  0x080308f0     0x2e  DblCmpGe.o [4]
  .text               ro code  0x08030920    0x114  xdscale.o [4]
  .text               ro code  0x08030a34     0x6c  localeconv.o [3]
  .text               ro code  0x08030aa0      0xe  div.o [3]
  .text               ro code  0x08030ab0    0xcf0  xscanffull.o [3]
  .text               ro code  0x080317a0      0xa  debug.o [1]
  .text               ro code  0x080317aa     0x16  debug.o [1]
  .text               ro code  0x080317c0     0x30  debug.o [1]
  .text               ro code  0x080317f0     0x2a  debug.o [1]
  .text               ro code  0x0803181a     0x1c  debug.o [1]
  .text               ro code  0x08031836     0x16  debug.o [1]
  .text               ro code  0x0803184c      0x2  I64DivZer.o [5]
  .text               ro code  0x0803184e      0x2  xtls.o [3]
  .text               ro code  0x08031850    0x148  xisdst.o [3]
  .text               ro code  0x08031998     0x54  setlocale.o [3]
  .text               ro code  0x080319ec      0xa  getzone.o [3]
  .text               ro code  0x080319f6     0x42  xgettime.o [3]
  .text               ro code  0x08031a38     0x88  xstol.o [3]
  .text               ro code  0x08031ac0     0xb8  stm32f4xx_ll_fsmc.o [1]
  .text               ro code  0x08031b78     0x32  ABImemset48.o [5]
  .text               ro code  0x08031bac     0x64  ff_gen_drv.o [1]
  .text               ro code  0x08031c10     0x60  xencoding_sb.o [3]
  .text               ro code  0x08031c70      0x6  abort.o [3]
  .text               ro code  0x08031c78     0x2c  xgetmemchunk.o [3]
  .text               ro code  0x08031ca4     0x40  xwctob.o [3]
  .text               ro code  0x08031ce4     0x28  isxxx.o [3]
  .text               ro code  0x08031d0c     0xa6  xstoll.o [3]
  .text               ro code  0x08031db4    0x1b0  xstoull.o [3]
  .text               ro code  0x08031f64    0x168  xstold.o [4]
  .text               ro code  0x080320cc     0x90  DblToFlt.o [4]
  .text               ro code  0x0803215c     0x38  debug.o [1]
  .text               ro code  0x08032194    0x15e  xgetdst.o [3]
  .text               ro code  0x080322f4    0x198  xstoul.o [3]
  .text               ro code  0x0803248c      0xc  errno.o [3]
  .text               ro code  0x08032498     0x14  exit.o [6]
  .text               ro code  0x080324ac     0x16  xlocale_c.o [3]
  .text               ro code  0x080324c2     0x14  xlocale_c.o [3]
  .text               ro code  0x080324d6     0x14  tolower.o [3]
  .text               ro code  0x080324ea    0x122  xstopfx.o [3]
  .text               ro code  0x0803260c    0x1d0  xstoflt.o [3]
  .rodata             const    0x080327dc     0x64  dtg.o [1]
  .text               ro code  0x08032840    0x200  xdtento.o [4]
  .text               ro code  0x08032a40    0x234  xstoxflt.o [3]
  .text               ro code  0x08032c74      0xc  xlocale_c.o [3]
  .text               ro code  0x08032c80     0x20  DblCmpEq.o [4]
  .text               ro code  0x08032ca0     0x52  xdunscal.o [4]
  .rodata             const    0x08032cf4   0x2d00  i2c_lcd.o [1]
  .rodata             const    0x080359f4   0x125c  ff.o [1]
  .rodata             const    0x08036c50   0x125c  i2c_lcd.o [1]
  .text               ro code  0x08037eac   0x11fc  usbuser.o [1]
  .text               ro code  0x080390a8    0x8d8  usbh_msc.o [1]
  .text               ro code  0x08039980    0x5b2  usbh_core.o [1]
  .text               ro code  0x08039f34     0x64  usb_host.o [1]
  .text               ro code  0x08039f98     0xa2  usbh_pipes.o [1]
  .text               ro code  0x0803a03c    0x380  usbh_msc_bot.o [1]
  .text               ro code  0x0803a3bc    0x384  usbh_conf.o [1]
  .text               ro code  0x0803a740    0x576  usbh_ctlreq.o [1]
  .text               ro code  0x0803acb6    0x3ce  usbh_msc_scsi.o [1]
  .text               ro code  0x0803b084     0xd0  usbh_ioreq.o [1]
  .text               ro code  0x0803b154   0x10f0  stm32f4xx_hal_hcd.o [1]
  .text               ro code  0x0803c244    0x902  stm32f4xx_ll_usb.o [1]
  .text               ro code  0x0803cb48    0xb2c  nmeap.o [1]
  .text               ro code  0x0803d674     0x24  ABIassert.o [6]
  .text               ro code  0x0803d698     0x10  atof.o [4]
  .text               ro code  0x0803d6a8     0x6c  strncpy_unaligned.o [5]
  .text               ro code  0x0803d714     0x2c  strncmp.o [3]
  .text               ro code  0x0803d740     0x1a  isalnum.o [3]
  .text               ro code  0x0803d75a     0x1e  isxdigit.o [3]
  .text               ro code  0x0803d778      0x8  atoi.o [3]
  .text               ro code  0x0803d780    0x168  xstod.o [4]
  .rodata             const    0x0803d8e8    0x800  i2c_lcd.o [1]
  .text               ro code  0x0803e0e8    0x278  stm32f4xx_it.o [1]
  .rodata             const    0x0803e360    0x200  extern.o [1]
  .rodata             const    0x0803e560    0x1e0  i2c_lcd.o [1]
  .text               ro code  0x0803e740    0x13c  usbh_diskio.o [1]
  .rodata             const    0x0803e87c     0xa0  gui.o [1]
  .rodata             const    0x0803e91c     0x80  cli.o [1]
  .rodata             const    0x0803e99c     0x80  usbuser.o [1]
  .rodata             const    0x0803ea1c     0x70  usbuser.o [1]
  .text               ro code  0x0803ea8c     0x70  system_stm32f4xx.o [1]
  .rodata             const    0x0803eafc     0x68  dtg.o [1]
  .rodata             const    0x0803eb64     0x58  debug.o [1]
  .rodata             const    0x0803ebbc     0x58  debug.o [1]
  .rodata             const    0x0803ec14     0x58  fsmc_nand.o [1]
  .rodata             const    0x0803ec6c     0x54  bsp_int.o [1]
  .rodata             const    0x0803ecc0     0x54  main.o [1]
  .rodata             const    0x0803ed14     0x54  nmeap.o [1]
  .rodata             const    0x0803ed68     0x54  stm32f4xx_hal_msp.o [1]
  .rodata             const    0x0803edbc     0x54  timer.o [1]
  .rodata             const    0x0803ee10     0x54  uart.o [1]
  .rodata             const    0x0803ee64     0x50  adc.o [1]
  .rodata             const    0x0803eeb4     0x50  can.o [1]
  .rodata             const    0x0803ef04     0x50  gui.o [1]
  .rodata             const    0x0803ef54     0x50  rtc.o [1]
  .rodata             const    0x0803efa4     0x4c  usbh_conf.o [1]
  .rodata             const    0x0803eff0     0x48  dtg.o [1]
  .rodata             const    0x0803f038     0x44  dtg.o [1]
  .text               ro code  0x0803f07c     0x40  zero_init3.o [5]
  .rodata             const    0x0803f0bc     0x3c  modem_Loop.o [1]
  .rodata             const    0x0803f0f8     0x3c  usbuser.o [1]
  .rodata             const    0x0803f134     0x38  cli.o [1]
  .text               ro code  0x0803f16c     0x38  packbits_init_single.o [5]
  .rodata             const    0x0803f1a4     0x34  cli.o [1]
  .rodata             const    0x0803f1d8     0x34  modem.o [1]
  .rodata             const    0x0803f20c     0x34  modem_Loop.o [1]
  .rodata             const    0x0803f240     0x34  nmeap.o [1]
  .rodata             const    0x0803f274     0x34  nmeap.o [1]
  .rodata             const    0x0803f2a8     0x30  modem.o [1]
  .rodata             const    0x0803f2d8     0x30  modem.o [1]
  .rodata             const    0x0803f308     0x2c  dtg.o [1]
  .rodata             const    0x0803f334     0x2c  modem.o [1]
  .rodata             const    0x0803f360     0x28  debug.o [1]
  .rodata             const    0x0803f388     0x28  gui.o [1]
  .rodata             const    0x0803f3b0     0x28  modem.o [1]
  .rodata             const    0x0803f3d8     0x28  modem.o [1]
  .text               ro code  0x0803f400     0x28  data_init.o [5]
  .rodata             const    0x0803f428     0x24  cli.o [1]
  .rodata             const    0x0803f44c     0x24  cli.o [1]
  .rodata             const    0x0803f470     0x24  gui.o [1]
  .rodata             const    0x0803f494     0x24  modem.o [1]
  .rodata             const    0x0803f4b8     0x24  modem.o [1]
  .rodata             const    0x0803f4dc     0x24  modem_sms.o [1]
  .rodata             const    0x0803f500     0x24  modem_sms.o [1]
  .rodata             const    0x0803f524     0x24  modem_sms.o [1]
  .rodata             const    0x0803f548     0x24  usbuser.o [1]
  .text               ro code  0x0803f56c     0x22  fpinit_M.o [4]
  .iar.init_table     const    0x0803f590     0x28  - Linker created -
  .rodata             const    0x0803f5b8     0x20  ble.o [1]
  .rodata             const    0x0803f5d8     0x20  cli.o [1]
  .rodata             const    0x0803f5f8     0x20  fsmc_nand.o [1]
  .rodata             const    0x0803f618     0x20  fsmc_nand.o [1]
  .rodata             const    0x0803f638     0x20  fsmc_nand.o [1]
  .rodata             const    0x0803f658     0x20  fsmc_nand.o [1]
  .rodata             const    0x0803f678     0x20  fsmc_nand.o [1]
  .rodata             const    0x0803f698     0x20  i2c_lcd.o [1]
  .rodata             const    0x0803f6b8     0x20  i2c_lcd.o [1]
  .rodata             const    0x0803f6d8     0x20  modem.o [1]
  .rodata             const    0x0803f6f8     0x20  modem.o [1]
  .rodata             const    0x0803f718     0x20  modem.o [1]
  .rodata             const    0x0803f738     0x20  modem.o [1]
  .rodata             const    0x0803f758     0x20  modem.o [1]
  .rodata             const    0x0803f778     0x20  modem.o [1]
  .rodata             const    0x0803f798     0x20  modem.o [1]
  .rodata             const    0x0803f7b8     0x20  modem.o [1]
  .rodata             const    0x0803f7d8     0x20  modem.o [1]
  .rodata             const    0x0803f7f8     0x20  modem_Loop.o [1]
  .rodata             const    0x0803f818     0x20  modem_sms.o [1]
  .rodata             const    0x0803f838     0x20  modem_sms.o [1]
  .rodata             const    0x0803f858     0x20  modem_sms.o [1]
  .rodata             const    0x0803f878     0x20  nmeap.o [1]
  .rodata             const    0x0803f898     0x1c  ble.o [1]
  .rodata             const    0x0803f8b4     0x1c  cli.o [1]
  .rodata             const    0x0803f8d0     0x1c  cli.o [1]
  .rodata             const    0x0803f8ec     0x1c  dtg.o [1]
  .rodata             const    0x0803f908     0x1c  dtg.o [1]
  .rodata             const    0x0803f924     0x1c  gui.o [1]
  .rodata             const    0x0803f940     0x1c  gui.o [1]
  .rodata             const    0x0803f95c     0x1c  i2c_fram.o [1]
  .rodata             const    0x0803f978     0x1c  i2c_fram.o [1]
  .rodata             const    0x0803f994     0x1c  modem.o [1]
  .rodata             const    0x0803f9b0     0x1c  modem.o [1]
  .rodata             const    0x0803f9cc     0x1c  modem.o [1]
  .rodata             const    0x0803f9e8     0x1c  modem.o [1]
  .rodata             const    0x0803fa04     0x1c  modem.o [1]
  .rodata             const    0x0803fa20     0x1c  modem.o [1]
  .rodata             const    0x0803fa3c     0x1c  modem.o [1]
  .rodata             const    0x0803fa58     0x1c  modem_Loop.o [1]
  .rodata             const    0x0803fa74     0x1c  modem_sms.o [1]
  .rodata             const    0x0803fa90     0x1c  modem_sms.o [1]
  .rodata             const    0x0803faac     0x1c  modem_sms.o [1]
  .rodata             const    0x0803fac8     0x1c  usbuser.o [1]
  .rodata             const    0x0803fae4     0x1c  usbuser.o [1]
  .text               ro code  0x0803fb00     0x1a  cmain.o [5]
  .text               ro code  0x0803fb1a      0x4  low_level_init.o [3]
  .text               ro code  0x0803fb1e      0x4  exit.o [3]
  .text               ro code  0x0803fb24      0xa  cexit.o [5]
  .rodata             const    0x0803fb30     0x18  cli.o [1]
  .rodata             const    0x0803fb48     0x18  dtg.o [1]
  .rodata             const    0x0803fb60     0x18  fsmc_nand.o [1]
  .rodata             const    0x0803fb78     0x18  gui.o [1]
  .rodata             const    0x0803fb90     0x18  gui.o [1]
  .rodata             const    0x0803fba8     0x18  i2c_lcd.o [1]
  .rodata             const    0x0803fbc0     0x18  i2c_lcd.o [1]
  .rodata             const    0x0803fbd8     0x18  i2c_lcd.o [1]
  .rodata             const    0x0803fbf0     0x18  i2c_lcd.o [1]
  .rodata             const    0x0803fc08     0x18  modem.o [1]
  .rodata             const    0x0803fc20     0x18  modem.o [1]
  .rodata             const    0x0803fc38     0x18  modem.o [1]
  .rodata             const    0x0803fc50     0x18  modem.o [1]
  .rodata             const    0x0803fc68     0x18  modem.o [1]
  .rodata             const    0x0803fc80     0x18  modem.o [1]
  .rodata             const    0x0803fc98     0x18  modem.o [1]
  .rodata             const    0x0803fcb0     0x18  modem.o [1]
  .rodata             const    0x0803fcc8     0x18  modem.o [1]
  .rodata             const    0x0803fce0     0x18  modem.o [1]
  .rodata             const    0x0803fcf8     0x18  modem.o [1]
  .rodata             const    0x0803fd10     0x18  modem.o [1]
  .rodata             const    0x0803fd28     0x18  modem.o [1]
  .rodata             const    0x0803fd40     0x18  modem.o [1]
  .rodata             const    0x0803fd58     0x18  modem_Loop.o [1]
  .rodata             const    0x0803fd70     0x18  modem_sms.o [1]
  .rodata             const    0x0803fd88     0x18  modem_sms.o [1]
  .rodata             const    0x0803fda0     0x18  modem_sms.o [1]
  .rodata             const    0x0803fdb8     0x18  modem_sms.o [1]
  .rodata             const    0x0803fdd0     0x18  nmeap.o [1]
  .rodata             const    0x0803fde8     0x18  rtc.o [1]
  .rodata             const    0x0803fe00     0x18  usbuser.o [1]
  .rodata             const    0x0803fe18     0x18  usbuser.o [1]
  .rodata             const    0x0803fe30     0x18  usbuser.o [1]
  .rodata             const    0x0803fe48     0x18  usbuser.o [1]
  .rodata             const    0x0803fe60     0x18  usbuser.o [1]
  .rodata             const    0x0803fe78     0x18  usbuser.o [1]
  .rodata             const    0x0803fe90     0x14  ble.o [1]
  .rodata             const    0x0803fea4     0x14  ble.o [1]
  .rodata             const    0x0803feb8     0x14  cli.o [1]
  .rodata             const    0x0803fecc     0x14  dtg.o [1]
  .rodata             const    0x0803fee0     0x14  fsmc_nand.o [1]
  .rodata             const    0x0803fef4     0x14  fsmc_nand.o [1]
  .rodata             const    0x0803ff08     0x14  gui.o [1]
  .rodata             const    0x0803ff1c     0x14  gui.o [1]
  .rodata             const    0x0803ff30     0x14  gui.o [1]
  .rodata             const    0x0803ff44     0x14  gui.o [1]
  .rodata             const    0x0803ff58     0x14  gui.o [1]
  .rodata             const    0x0803ff6c     0x14  gui.o [1]
  .rodata             const    0x0803ff80     0x14  gui.o [1]
  .rodata             const    0x0803ff94     0x14  gui.o [1]
  .rodata             const    0x0803ffa8     0x14  gui.o [1]
  .rodata             const    0x0803ffbc     0x14  gui.o [1]
  .rodata             const    0x0803ffd0     0x14  gui.o [1]
  .rodata             const    0x0803ffe4     0x14  gui.o [1]
  .rodata             const    0x0803fff8     0x14  gui.o [1]
  .rodata             const    0x0804000c     0x14  gui.o [1]
  .rodata             const    0x08040020     0x14  gui.o [1]
  .rodata             const    0x08040034     0x14  gui.o [1]
  .rodata             const    0x08040048     0x14  gui.o [1]
  .rodata             const    0x0804005c     0x14  gui.o [1]
  .rodata             const    0x08040070     0x14  gui.o [1]
  .rodata             const    0x08040084     0x14  gui.o [1]
  .rodata             const    0x08040098     0x14  gui.o [1]
  .rodata             const    0x080400ac     0x14  gui.o [1]
  .rodata             const    0x080400c0     0x14  gui.o [1]
  .rodata             const    0x080400d4     0x14  gui.o [1]
  .rodata             const    0x080400e8     0x14  gui.o [1]
  .rodata             const    0x080400fc     0x14  gui.o [1]
  .rodata             const    0x08040110     0x14  gui.o [1]
  .rodata             const    0x08040124     0x14  gui.o [1]
  .rodata             const    0x08040138     0x14  gui.o [1]
  .rodata             const    0x0804014c     0x14  gui.o [1]
  .rodata             const    0x08040160     0x14  gui.o [1]
  .rodata             const    0x08040174     0x14  gui.o [1]
  .rodata             const    0x08040188     0x14  gui.o [1]
  .rodata             const    0x0804019c     0x14  gui.o [1]
  .rodata             const    0x080401b0     0x14  gui.o [1]
  .rodata             const    0x080401c4     0x14  gui.o [1]
  .rodata             const    0x080401d8     0x14  gui.o [1]
  .rodata             const    0x080401ec     0x14  gui.o [1]
  .rodata             const    0x08040200     0x14  gui.o [1]
  .rodata             const    0x08040214     0x14  main.o [1]
  .rodata             const    0x08040228     0x14  main.o [1]
  .rodata             const    0x0804023c     0x14  main.o [1]
  .rodata             const    0x08040250     0x14  main.o [1]
  .rodata             const    0x08040264     0x14  main.o [1]
  .rodata             const    0x08040278     0x14  main.o [1]
  .rodata             const    0x0804028c     0x14  main.o [1]
  .rodata             const    0x080402a0     0x14  main.o [1]
  .rodata             const    0x080402b4     0x14  main.o [1]
  .rodata             const    0x080402c8     0x14  main.o [1]
  .rodata             const    0x080402dc     0x14  modem.o [1]
  .rodata             const    0x080402f0     0x14  modem.o [1]
  .rodata             const    0x08040304     0x14  modem.o [1]
  .rodata             const    0x08040318     0x14  modem.o [1]
  .rodata             const    0x0804032c     0x14  modem_sms.o [1]
  .rodata             const    0x08040340     0x14  nmeap.o [1]
  .rodata             const    0x08040354     0x14  stm32f4xx_it.o [1]
  .rodata             const    0x08040368     0x14  usbh_diskio.o [1]
  .rodata             const    0x0804037c     0x14  usbuser.o [1]
  .rodata             const    0x08040390     0x14  usbuser.o [1]
  .rodata             const    0x080403a4     0x14  usbuser.o [1]
  .rodata             const    0x080403b8     0x14  usbuser.o [1]
  .rodata             const    0x080403cc     0x14  usbuser.o [1]
  .rodata             const    0x080403e0     0x14  usbuser.o [1]
  .rodata             const    0x080403f4     0x14  usbuser.o [1]
  .rodata             const    0x08040408     0x14  usbuser.o [1]
  .rodata             const    0x0804041c     0x10  ble.o [1]
  .rodata             const    0x0804042c     0x10  ble.o [1]
  .rodata             const    0x0804043c     0x10  dtg.o [1]
  .rodata             const    0x0804044c     0x10  extern.o [1]
  .rodata             const    0x0804045c     0x10  ff.o [1]
  .rodata             const    0x0804046c     0x10  gui.o [1]
  .rodata             const    0x0804047c     0x10  gui.o [1]
  .rodata             const    0x0804048c     0x10  gui.o [1]
  .rodata             const    0x0804049c     0x10  gui.o [1]
  .rodata             const    0x080404ac     0x10  i2c_fram.o [1]
  .rodata             const    0x080404bc     0x10  i2c_fram.o [1]
  .rodata             const    0x080404cc     0x10  i2c_fram.o [1]
  .rodata             const    0x080404dc     0x10  i2c_fram.o [1]
  .rodata             const    0x080404ec     0x10  main.o [1]
  .rodata             const    0x080404fc     0x10  modem.o [1]
  .rodata             const    0x0804050c     0x10  modem.o [1]
  .rodata             const    0x0804051c     0x10  modem.o [1]
  .rodata             const    0x0804052c     0x10  modem.o [1]
  .rodata             const    0x0804053c     0x10  modem.o [1]
  .rodata             const    0x0804054c     0x10  modem.o [1]
  .rodata             const    0x0804055c     0x10  modem.o [1]
  .rodata             const    0x0804056c     0x10  modem.o [1]
  .rodata             const    0x0804057c     0x10  modem.o [1]
  .rodata             const    0x0804058c     0x10  modem.o [1]
  .rodata             const    0x0804059c     0x10  modem.o [1]
  .rodata             const    0x080405ac     0x10  modem.o [1]
  .rodata             const    0x080405bc     0x10  modem.o [1]
  .rodata             const    0x080405cc     0x10  modem.o [1]
  .rodata             const    0x080405dc     0x10  modem.o [1]
  .rodata             const    0x080405ec     0x10  modem.o [1]
  .rodata             const    0x080405fc     0x10  modem.o [1]
  .rodata             const    0x0804060c     0x10  modem.o [1]
  .rodata             const    0x0804061c     0x10  modem.o [1]
  .rodata             const    0x0804062c     0x10  modem.o [1]
  .rodata             const    0x0804063c     0x10  modem.o [1]
  .rodata             const    0x0804064c     0x10  modem.o [1]
  .rodata             const    0x0804065c     0x10  modem.o [1]
  .rodata             const    0x0804066c     0x10  modem.o [1]
  .rodata             const    0x0804067c     0x10  modem_Loop.o [1]
  .rodata             const    0x0804068c     0x10  modem_Loop.o [1]
  .rodata             const    0x0804069c     0x10  modem_Loop.o [1]
  .rodata             const    0x080406ac     0x10  modem_sms.o [1]
  .rodata             const    0x080406bc     0x10  modem_sms.o [1]
  .rodata             const    0x080406cc     0x10  modem_sms.o [1]
  .rodata             const    0x080406dc     0x10  modem_sms.o [1]
  .rodata             const    0x080406ec     0x10  modem_sms.o [1]
  .rodata             const    0x080406fc     0x10  modem_sms.o [1]
  .rodata             const    0x0804070c     0x10  modem_sms.o [1]
  .rodata             const    0x0804071c     0x10  modem_sms.o [1]
  .rodata             const    0x0804072c     0x10  nmeap.o [1]
  .rodata             const    0x0804073c     0x10  nmeap.o [1]
  .rodata             const    0x0804074c     0x10  nmeap.o [1]
  .rodata             const    0x0804075c     0x10  stm32f4xx_it.o [1]
  .rodata             const    0x0804076c     0x10  stm32f4xx_it.o [1]
  .rodata             const    0x0804077c     0x10  system_stm32f4xx.o [1]
  .rodata             const    0x0804078c     0x10  usbuser.o [1]
  .rodata             const    0x0804079c     0x10  usbuser.o [1]
  .rodata             const    0x080407ac     0x10  usbuser.o [1]
  .rodata             const    0x080407bc     0x10  usbuser.o [1]
  .rodata             const    0x080407cc     0x10  usbuser.o [1]
  .rodata             const    0x080407dc     0x10  usbuser.o [1]
  .text               ro code  0x080407ec     0x10  startup_stm32f407xx.o [1]
  .rodata             const    0x080407fc      0xc  ble.o [1]
  .rodata             const    0x08040808      0xc  ble.o [1]
  .rodata             const    0x08040814      0xc  ble.o [1]
  .rodata             const    0x08040820      0xc  cli.o [1]
  .rodata             const    0x0804082c      0xc  cli.o [1]
  .rodata             const    0x08040838      0xc  dtg.o [1]
  .rodata             const    0x08040844      0xc  dtg.o [1]
  .rodata             const    0x08040850      0xc  extern.o [1]
  .rodata             const    0x0804085c      0xc  extern.o [1]
  .rodata             const    0x08040868      0xc  extern.o [1]
  .rodata             const    0x08040874      0xc  ff.o [1]
  .rodata             const    0x08040880      0xc  fsmc_nand.o [1]
  .rodata             const    0x0804088c      0xc  fsmc_nand.o [1]
  .rodata             const    0x08040898      0xc  fsmc_nand.o [1]
  .rodata             const    0x080408a4      0xc  gui.o [1]
  .rodata             const    0x080408b0      0xc  gui.o [1]
  .rodata             const    0x080408bc      0xc  gui.o [1]
  .rodata             const    0x080408c8      0xc  gui.o [1]
  .rodata             const    0x080408d4      0xc  gui.o [1]
  .rodata             const    0x080408e0      0xc  gui.o [1]
  .rodata             const    0x080408ec      0xc  gui.o [1]
  .rodata             const    0x080408f8      0xc  gui.o [1]
  .rodata             const    0x08040904      0xc  gui.o [1]
  .rodata             const    0x08040910      0xc  i2c_fram.o [1]
  .rodata             const    0x0804091c      0xc  i2c_fram.o [1]
  .rodata             const    0x08040928      0xc  i2c_fram.o [1]
  .rodata             const    0x08040934      0xc  i2c_fram.o [1]
  .rodata             const    0x08040940      0xc  main.o [1]
  .rodata             const    0x0804094c      0xc  main.o [1]
  .rodata             const    0x08040958      0xc  main.o [1]
  .rodata             const    0x08040964      0xc  main.o [1]
  .rodata             const    0x08040970      0xc  main.o [1]
  .rodata             const    0x0804097c      0xc  main.o [1]
  .rodata             const    0x08040988      0xc  main.o [1]
  .rodata             const    0x08040994      0xc  main.o [1]
  .rodata             const    0x080409a0      0xc  main.o [1]
  .rodata             const    0x080409ac      0xc  main.o [1]
  .rodata             const    0x080409b8      0xc  modem.o [1]
  .rodata             const    0x080409c4      0xc  modem.o [1]
  .rodata             const    0x080409d0      0xc  modem.o [1]
  .rodata             const    0x080409dc      0xc  modem.o [1]
  .rodata             const    0x080409e8      0xc  modem.o [1]
  .rodata             const    0x080409f4      0xc  modem.o [1]
  .rodata             const    0x08040a00      0xc  modem.o [1]
  .rodata             const    0x08040a0c      0xc  modem.o [1]
  .rodata             const    0x08040a18      0xc  modem.o [1]
  .rodata             const    0x08040a24      0xc  modem.o [1]
  .rodata             const    0x08040a30      0xc  modem.o [1]
  .rodata             const    0x08040a3c      0xc  modem.o [1]
  .rodata             const    0x08040a48      0xc  modem.o [1]
  .rodata             const    0x08040a54      0xc  modem.o [1]
  .rodata             const    0x08040a60      0xc  modem.o [1]
  .rodata             const    0x08040a6c      0xc  modem.o [1]
  .rodata             const    0x08040a78      0xc  modem.o [1]
  .rodata             const    0x08040a84      0xc  modem.o [1]
  .rodata             const    0x08040a90      0xc  modem.o [1]
  .rodata             const    0x08040a9c      0xc  modem.o [1]
  .rodata             const    0x08040aa8      0xc  modem.o [1]
  .rodata             const    0x08040ab4      0xc  modem.o [1]
  .rodata             const    0x08040ac0      0xc  modem.o [1]
  .rodata             const    0x08040acc      0xc  modem.o [1]
  .rodata             const    0x08040ad8      0xc  modem_Loop.o [1]
  .rodata             const    0x08040ae4      0xc  modem_sms.o [1]
  .rodata             const    0x08040af0      0xc  modem_sms.o [1]
  .rodata             const    0x08040afc      0xc  modem_sms.o [1]
  .rodata             const    0x08040b08      0xc  modem_sms.o [1]
  .rodata             const    0x08040b14      0xc  modem_sms.o [1]
  .rodata             const    0x08040b20      0xc  modem_sms.o [1]
  .rodata             const    0x08040b2c      0xc  modem_sms.o [1]
  .rodata             const    0x08040b38      0xc  modem_sms.o [1]
  .rodata             const    0x08040b44      0xc  modem_sms.o [1]
  .rodata             const    0x08040b50      0xc  modem_sms.o [1]
  .rodata             const    0x08040b5c      0xc  modem_sms.o [1]
  .rodata             const    0x08040b68      0xc  nmeap.o [1]
  .rodata             const    0x08040b74      0xc  nmeap.o [1]
  .rodata             const    0x08040b80      0xc  nmeap.o [1]
  .rodata             const    0x08040b8c      0xc  stm32f4xx_it.o [1]
  .rodata             const    0x08040b98      0xc  usbuser.o [1]
  .text               ro code  0x08040ba4      0xc  cstartup_M.o [5]
  .rodata             const    0x08040bb0      0x8  ble.o [1]
  .rodata             const    0x08040bb8      0x8  ble.o [1]
  .rodata             const    0x08040bc0      0x8  ble.o [1]
  .rodata             const    0x08040bc8      0x8  can.o [1]
  .rodata             const    0x08040bd0      0x8  cli.o [1]
  .rodata             const    0x08040bd8      0x8  cli.o [1]
  .rodata             const    0x08040be0      0x8  cli.o [1]
  .rodata             const    0x08040be8      0x8  cli.o [1]
  .rodata             const    0x08040bf0      0x8  cli.o [1]
  .rodata             const    0x08040bf8      0x8  cli.o [1]
  .rodata             const    0x08040c00      0x8  cli.o [1]
  .rodata             const    0x08040c08      0x8  dtg.o [1]
  .rodata             const    0x08040c10      0x8  dtg.o [1]
  .rodata             const    0x08040c18      0x8  dtg.o [1]
  .rodata             const    0x08040c20      0x8  dtg.o [1]
  .rodata             const    0x08040c28      0x8  dtg.o [1]
  .rodata             const    0x08040c30      0x8  ff.o [1]
  .rodata             const    0x08040c38      0x8  fsmc_nand.o [1]
  .rodata             const    0x08040c40      0x8  fsmc_nand.o [1]
  .rodata             const    0x08040c48      0x8  gui.o [1]
  .rodata             const    0x08040c50      0x8  gui.o [1]
  .rodata             const    0x08040c58      0x8  gui.o [1]
  .rodata             const    0x08040c60      0x8  gui.o [1]
  .rodata             const    0x08040c68      0x8  gui.o [1]
  .rodata             const    0x08040c70      0x8  gui.o [1]
  .rodata             const    0x08040c78      0x8  gui.o [1]
  .rodata             const    0x08040c80      0x8  gui.o [1]
  .rodata             const    0x08040c88      0x8  gui.o [1]
  .rodata             const    0x08040c90      0x8  gui.o [1]
  .rodata             const    0x08040c98      0x8  gui.o [1]
  .rodata             const    0x08040ca0      0x8  gui.o [1]
  .rodata             const    0x08040ca8      0x8  gui.o [1]
  .rodata             const    0x08040cb0      0x8  gui.o [1]
  .rodata             const    0x08040cb8      0x8  gui.o [1]
  .rodata             const    0x08040cc0      0x8  gui.o [1]
  .rodata             const    0x08040cc8      0x8  gui.o [1]
  .rodata             const    0x08040cd0      0x8  gui.o [1]
  .rodata             const    0x08040cd8      0x8  gui.o [1]
  .rodata             const    0x08040ce0      0x8  gui.o [1]
  .rodata             const    0x08040ce8      0x8  gui.o [1]
  .rodata             const    0x08040cf0      0x8  gui.o [1]
  .rodata             const    0x08040cf8      0x8  i2c_fram.o [1]
  .rodata             const    0x08040d00      0x8  i2c_fram.o [1]
  .rodata             const    0x08040d08      0x8  i2c_fram.o [1]
  .rodata             const    0x08040d10      0x8  i2c_gsensor.o [1]
  .rodata             const    0x08040d18      0x8  modem.o [1]
  .rodata             const    0x08040d20      0x8  modem.o [1]
  .rodata             const    0x08040d28      0x8  modem.o [1]
  .rodata             const    0x08040d30      0x8  modem.o [1]
  .rodata             const    0x08040d38      0x8  modem.o [1]
  .rodata             const    0x08040d40      0x8  modem.o [1]
  .rodata             const    0x08040d48      0x8  modem.o [1]
  .rodata             const    0x08040d50      0x8  modem.o [1]
  .rodata             const    0x08040d58      0x8  modem.o [1]
  .rodata             const    0x08040d60      0x8  modem_sms.o [1]
  .rodata             const    0x08040d68      0x8  modem_sms.o [1]
  .rodata             const    0x08040d70      0x8  modem_sms.o [1]
  .rodata             const    0x08040d78      0x8  nmeap.o [1]
  .rodata             const    0x08040d80      0x8  nmeap.o [1]
  .rodata             const    0x08040d88      0x8  nmeap.o [1]
  .rodata             const    0x08040d90      0x8  nmeap.o [1]
  .rodata             const    0x08040d98      0x8  nmeap.o [1]
  .rodata             const    0x08040da0      0x8  rtc.o [1]
  .rodata             const    0x08040da8      0x8  stm32f4xx_hal_dma.o [1]
  .rodata             const    0x08040db0      0x8  system_stm32f4xx.o [1]
  .rodata             const    0x08040db8      0x8  tasks.o [1]
  .rodata             const    0x08040dc0      0x8  timers.o [1]
  .rodata             const    0x08040dc8      0x8  timers.o [1]
  .rodata             const    0x08040dd0      0x8  usbuser.o [1]
  .rodata             const    0x08040dd8      0x8  usbuser.o [1]
  .rodata             const    0x08040de0      0x4  cli.o [1]
  .rodata             const    0x08040de4      0x4  cli.o [1]
  .rodata             const    0x08040de8      0x4  cli.o [1]
  .rodata             const    0x08040dec      0x4  cli.o [1]
  .rodata             const    0x08040df0      0x4  cli.o [1]
  .rodata             const    0x08040df4      0x4  fsmc_nand.o [1]
  .rodata             const    0x08040df8      0x4  heap_4.o [1]
  .rodata             const    0x08040dfc      0x4  i2c_fram.o [1]
  .rodata             const    0x08040e00      0x4  i2c_lcd.o [1]
  .rodata             const    0x08040e04      0x4  main.o [1]
  .rodata             const    0x08040e08      0x4  port.o [1]
  .rodata             const    0x08040e0c      0x4  rtc.o [1]
  .rodata             const    0x08040e10      0x4  spi_flash.o [1]
  .rodata             const    0x08040e14      0x4  usbh_msc.o [1]
  .text               ro code  0x08040e18      0x4  startup_stm32f407xx.o [1]
  .text               ro code  0x08040e1c      0x4  startup_stm32f407xx.o [1]
  .text               ro code  0x08040e20      0x4  startup_stm32f407xx.o [1]
  .text               ro code  0x08040e24      0x4  startup_stm32f407xx.o [1]
  .text               ro code  0x08040e28      0x4  startup_stm32f407xx.o [1]
  .text               ro code  0x08040e2c      0x4  startup_stm32f407xx.o [1]
  .text               ro code  0x08040e30      0x4  startup_stm32f407xx.o [1]
  .text               ro code  0x08040e34      0x4  startup_stm32f407xx.o [1]
  .text               ro code  0x08040e38      0x4  startup_stm32f407xx.o [1]
  .text               ro code  0x08040e3c      0x4  startup_stm32f407xx.o [1]
  .text               ro code  0x08040e40      0x4  startup_stm32f407xx.o [1]
  .text               ro code  0x08040e44      0x4  startup_stm32f407xx.o [1]
  .text               ro code  0x08040e48      0x4  startup_stm32f407xx.o [1]
  .text               ro code  0x08040e4c      0x4  startup_stm32f407xx.o [1]
  .text               ro code  0x08040e50      0x4  startup_stm32f407xx.o [1]
  .text               ro code  0x08040e54      0x4  startup_stm32f407xx.o [1]
  .text               ro code  0x08040e58      0x4  startup_stm32f407xx.o [1]
  .text               ro code  0x08040e5c      0x4  startup_stm32f407xx.o [1]
  .text               ro code  0x08040e60      0x4  startup_stm32f407xx.o [1]
  .text               ro code  0x08040e64      0x4  startup_stm32f407xx.o [1]
  .text               ro code  0x08040e68      0x4  startup_stm32f407xx.o [1]
  .text               ro code  0x08040e6c      0x4  startup_stm32f407xx.o [1]
  .text               ro code  0x08040e70      0x4  startup_stm32f407xx.o [1]
  .text               ro code  0x08040e74      0x4  startup_stm32f407xx.o [1]
  .text               ro code  0x08040e78      0x4  startup_stm32f407xx.o [1]
  .text               ro code  0x08040e7c      0x4  startup_stm32f407xx.o [1]
  .text               ro code  0x08040e80      0x4  startup_stm32f407xx.o [1]
  .text               ro code  0x08040e84      0x4  startup_stm32f407xx.o [1]
  .text               ro code  0x08040e88      0x4  startup_stm32f407xx.o [1]
  .text               ro code  0x08040e8c      0x4  startup_stm32f407xx.o [1]
  .text               ro code  0x08040e90      0x4  startup_stm32f407xx.o [1]
  .text               ro code  0x08040e94      0x4  startup_stm32f407xx.o [1]
  .text               ro code  0x08040e98      0x4  startup_stm32f407xx.o [1]
  .text               ro code  0x08040e9c      0x4  startup_stm32f407xx.o [1]
  .text               ro code  0x08040ea0      0x4  startup_stm32f407xx.o [1]
  .text               ro code  0x08040ea4      0x4  startup_stm32f407xx.o [1]
  .text               ro code  0x08040ea8      0x4  startup_stm32f407xx.o [1]
  .text               ro code  0x08040eac      0x4  startup_stm32f407xx.o [1]
  .text               ro code  0x08040eb0      0x4  startup_stm32f407xx.o [1]
  .text               ro code  0x08040eb4      0x4  startup_stm32f407xx.o [1]
  .text               ro code  0x08040eb8      0x4  startup_stm32f407xx.o [1]
  .text               ro code  0x08040ebc      0x4  startup_stm32f407xx.o [1]
  .text               ro code  0x08040ec0      0x4  startup_stm32f407xx.o [1]
  .text               ro code  0x08040ec4      0x4  startup_stm32f407xx.o [1]
  .text               ro code  0x08040ec8      0x4  startup_stm32f407xx.o [1]
  .text               ro code  0x08040ecc      0x4  startup_stm32f407xx.o [1]
  .text               ro code  0x08040ed0      0x4  startup_stm32f407xx.o [1]
  .text               ro code  0x08040ed4      0x4  startup_stm32f407xx.o [1]
  .text               ro code  0x08040ed8      0x4  startup_stm32f407xx.o [1]
  .text               ro code  0x08040edc      0x4  startup_stm32f407xx.o [1]
  .text               ro code  0x08040ee0      0x4  startup_stm32f407xx.o [1]
  .text               ro code  0x08040ee4      0x4  startup_stm32f407xx.o [1]
  .text               ro code  0x08040ee8      0x4  startup_stm32f407xx.o [1]
  .text               ro code  0x08040eec      0x4  startup_stm32f407xx.o [1]
  .text               ro code  0x08040ef0      0x4  startup_stm32f407xx.o [1]
  .text               ro code  0x08040ef4      0x4  startup_stm32f407xx.o [1]
  .text               ro code  0x08040ef8      0x4  startup_stm32f407xx.o [1]
  .text               ro code  0x08040efc      0x4  startup_stm32f407xx.o [1]
  .text               ro code  0x08040f00      0x4  startup_stm32f407xx.o [1]
  .text               ro code  0x08040f04      0x4  startup_stm32f407xx.o [1]
  .text               ro code  0x08040f08      0x4  startup_stm32f407xx.o [1]
  .text               ro code  0x08040f0c      0x4  startup_stm32f407xx.o [1]
  .text               ro code  0x08040f10      0x4  startup_stm32f407xx.o [1]
  .rodata             const    0x08040f14      0x0  zero_init3.o [5]
  .rodata             const    0x08040f14      0x0  packbits_init_single.o [5]
  Initializer bytes   const    0x08040f14     0x4a  <for P3-1>
                             - 0x08040f5e  0x30dd6

"P1":                                       0x4b00
  EXTCCRAM            zero     0x10000000   0x4b00  dtg.o [1]
                             - 0x10004b00   0x4b00

"P3", part 1 of 3:                           0x207
  P3-1                         0x20000000    0x207  <Init block>
    .data             inited   0x20000000      0x4  port.o [1]
    .data             inited   0x20000004      0x4  system_stm32f4xx.o [1]
    .data             inited   0x20000008     0x20  usbh_msc.o [1]
    .data             inited   0x20000028     0x14  usbuser.o [1]
    __DLIB_PERTHREAD  inited   0x2000003c     0x8c  rand.o [3]
    __DLIB_PERTHREAD  inited   0x200000c8     0x2c  xttotm.o [3]
    __DLIB_PERTHREAD  inited   0x200000f4      0x8  localtim.o [3]
    __DLIB_PERTHREAD  inited   0x200000fc     0x88  localeconv.o [3]
    __DLIB_PERTHREAD  inited   0x20000184      0x4  errno.o [3]
    __DLIB_PERTHREAD  inited   0x20000188     0x74  setlocale.o [3]
    __DLIB_PERTHREAD  inited   0x200001fc      0x4  xisdst.o [3]
    __DLIB_PERTHREAD  inited   0x20000200      0x4  xisdstData.o [3]
    .data             inited   0x20000204      0x1  cli.o [1]
    .data             inited   0x20000205      0x1  modem.o [1]
    .data             inited   0x20000206      0x1  modem.o [1]
                             - 0x20000207    0x207

"P3", part 2 of 3:                          0x6000
  CSTACK                       0x20000208   0x4000  <Block>
    CSTACK            uninit   0x20000208   0x4000  <Block tail>
  HEAP                         0x20004208   0x2000  <Block>
    HEAP              uninit   0x20004208   0x2000  <Block tail>
                             - 0x20006208   0x6000

"P3", part 3 of 3:                          0xdd24
  .bss                zero     0x20006208   0x4000  heap_4.o [1]
  .bss                zero     0x2000a208   0x1800  modem.o [1]
  .bss                zero     0x2000ba08   0x110c  modem.o [1]
  .bss                zero     0x2000cb14   0x1028  modem_Loop.o [1]
  .bss                zero     0x2000db3c   0x1000  fsmc_nand.o [1]
  .bss                zero     0x2000eb3c   0x1000  test_jig.o [1]
  .bss                zero     0x2000fb3c    0x400  cli.o [1]
  .bss                zero     0x2000ff3c    0x400  fsmc_nand.o [1]
  .bss                zero     0x2001033c    0x400  modem_tool.o [1]
  .bss                zero     0x2001073c    0x3c8  usb_host.o [1]
  .bss                zero     0x20010b04    0x358  nmeap.o [1]
  .bss                zero     0x20010e5c    0x298  usbh_conf.o [1]
  .bss                zero     0x200110f4    0x234  fatfs.o [1]
  .bss                zero     0x20011328    0x228  dtg.o [1]
  .bss                zero     0x20011550    0x228  fatfs.o [1]
  .bss                zero     0x20011778    0x200  cli.o [1]
  .bss                zero     0x20011978    0x200  cli.o [1]
  .bss                zero     0x20011b78    0x200  nmeap.o [1]
  .bss                zero     0x20011d78    0x1d8  dlmalloc.o [3]
  .bss                zero     0x20011f50    0x140  ble.o [1]
  .bss                zero     0x20012090    0x140  modem.o [1]
  .bss                zero     0x200121d0    0x118  usbuser.o [1]
  .bss                zero     0x200122e8    0x100  ble.o [1]
  .bss                zero     0x200123e8    0x100  ble.o [1]
  .bss                zero     0x200124e8    0x100  modem.o [1]
  .bss                zero     0x200125e8    0x100  modem_tool.o [1]
  .bss                zero     0x200126e8    0x100  usbuser.o [1]
  .bss                zero     0x200127e8     0xf0  tasks.o [1]
  .bss                zero     0x200128d8     0xe0  ble.o [1]
  .bss                zero     0x200129b8     0xe0  dtg.o [1]
  .bss                zero     0x20012a98     0xe0  usbuser.o [1]
  .bss                zero     0x20012b78     0xe0  usbuser.o [1]
  .bss                zero     0x20012c58     0x8c  modem.o [1]
  .bss                zero     0x20012ce4     0x80  cli.o [1]
  .bss                zero     0x20012d64     0x80  dtg.o [1]
  .bss                zero     0x20012de4     0x80  usbuser.o [1]
  .bss                zero     0x20012e64     0x78  modem.o [1]
  .bss                zero     0x20012edc     0x6c  sys_struct.o [1]
  .bss                zero     0x20012f48     0x68  fsmc_nand.o [1]
  .bss                zero     0x20012fb0     0x64  ble.o [1]
  .bss                zero     0x20013014     0x64  modem.o [1]
  .bss                zero     0x20013078     0x64  rtc.o [1]
  .bss                zero     0x200130dc     0x60  adc.o [1]
  .bss                zero     0x2001313c     0x60  ble.o [1]
  .bss                zero     0x2001319c     0x50  modem_sms.o [1]
  .bss                zero     0x200131ec     0x48  adc.o [1]
  .bss                zero     0x20013234     0x44  can.o [1]
  .bss                zero     0x20013278     0x44  can.o [1]
  .bss                zero     0x200132bc     0x40  dtg.o [1]
  .bss                zero     0x200132fc     0x40  dtg.o [1]
  .bss                zero     0x2001333c     0x40  fsmc_nand.o [1]
  .bss                zero     0x2001337c     0x40  modem.o [1]
  .bss                zero     0x200133bc     0x40  modem.o [1]
  .bss                zero     0x200133fc     0x40  modem.o [1]
  .bss                zero     0x2001343c     0x40  modem.o [1]
  .bss                zero     0x2001347c     0x40  queue.o [1]
  .bss                zero     0x200134bc     0x40  uart.o [1]
  .bss                zero     0x200134fc     0x40  uart.o [1]
  .bss                zero     0x2001353c     0x40  uart.o [1]
  .bss                zero     0x2001357c     0x40  uart.o [1]
  .bss                zero     0x200135bc     0x40  uart.o [1]
  .bss                zero     0x200135fc     0x40  uart.o [1]
  .bss                zero     0x2001363c     0x40  usbuser.o [1]
  .bss                zero     0x2001367c     0x3c  gui.o [1]
  .bss                zero     0x200136b8     0x3c  stm32f4xx_hal_timebase_TIM.o [1]
  .bss                zero     0x200136f4     0x3c  timer.o [1]
  .bss                zero     0x20013730     0x3c  timer.o [1]
  .bss                zero     0x2001376c     0x3c  timer.o [1]
  .bss                zero     0x200137a8     0x3c  usbuser.o [1]
  .bss                zero     0x200137e4     0x34  usbuser.o [1]
  .bss                zero     0x20013818     0x38  nmeap.o [1]
  .bss                zero     0x20013850     0x38  nmeap.o [1]
  .bss                zero     0x20013888     0x24  can.o [1]
  .bss                zero     0x200138ac     0x24  can.o [1]
  .bss                zero     0x200138d0     0x20  cli.o [1]
  .bss                zero     0x200138f0     0x20  cli.o [1]
  .bss                zero     0x20013910     0x20  cli.o [1]
  .bss                zero     0x20013930     0x20  gui.o [1]
  .bss                zero     0x20013950     0x20  modem.o [1]
  .bss                zero     0x20013970     0x20  modem.o [1]
  .bss                zero     0x20013990     0x20  modem.o [1]
  .bss                zero     0x200139b0     0x20  rtc.o [1]
  .bss                zero     0x200139d0     0x1c  can.o [1]
  .bss                zero     0x200139ec     0x1c  can.o [1]
  .bss                zero     0x20013a08     0x1c  can.o [1]
  .bss                zero     0x20013a24     0x1c  can.o [1]
  .bss                zero     0x20013a40     0x18  ble.o [1]
  .bss                zero     0x20013a58     0x18  dtg.o [1]
  .bss                zero     0x20013a70     0x18  nmeap.o [1]
  .bss                zero     0x20013a88     0x18  dlmalloc.o [3]
  .bss                zero     0x20013aa0     0x14  modem.o [1]
  .bss                zero     0x20013ab4     0x14  modem_sms.o [1]
  .bss                zero     0x20013ac8     0x14  tasks.o [1]
  .bss                zero     0x20013adc     0x14  tasks.o [1]
  .bss                zero     0x20013af0     0x14  tasks.o [1]
  .bss                zero     0x20013b04     0x14  tasks.o [1]
  .bss                zero     0x20013b18     0x14  tasks.o [1]
  .bss                zero     0x20013b2c     0x14  timers.o [1]
  .bss                zero     0x20013b40     0x14  timers.o [1]
  .bss                zero     0x20013b54     0x14  usbuser.o [1]
  .bss                zero     0x20013b68     0x14  usbuser.o [1]
  .bss                zero     0x20013b7c      0xc  dtg.o [1]
  .bss                zero     0x20013b88      0xc  dtg.o [1]
  .bss                zero     0x20013b94      0xc  extern.o [1]
  .bss                zero     0x20013ba0      0xc  ff_gen_drv.o [1]
  .bss                zero     0x20013bac      0xc  fsmc_nand.o [1]
  .bss                zero     0x20013bb8      0xc  main.o [1]
  .bss                zero     0x20013bc4      0xc  modem.o [1]
  .bss                zero     0x20013bd0      0xc  modem.o [1]
  .bss                zero     0x20013bdc      0xc  modem_sms.o [1]
  .bss                zero     0x20013be8      0x8  ble.o [1]
  .bss                zero     0x20013bf0      0x8  dtg.o [1]
  .bss                zero     0x20013bf8      0x8  gui.o [1]
  .bss                zero     0x20013c00      0x8  heap_4.o [1]
  .bss                zero     0x20013c08      0x8  i2c_gsensor.o [1]
  .bss                zero     0x20013c10      0x8  i2c_gsensor.o [1]
  .bss                zero     0x20013c18      0x8  i2c_gsensor.o [1]
  .bss                zero     0x20013c20      0x8  i2c_gsensor.o [1]
  .bss                zero     0x20013c28      0x8  i2c_gsensor.o [1]
  .bss                zero     0x20013c30      0x8  modem_Loop.o [1]
  .bss                zero     0x20013c38      0x8  rtc.o [1]
  .bss                zero     0x20013c40      0x8  test_jig.o [1]
  .bss                zero     0x20013c48      0x8  usbuser.o [1]
  .bss                zero     0x20013c50      0x8  usbuser.o [1]
  .bss                zero     0x20013c58      0x4  ble.o [1]
  .bss                zero     0x20013c5c      0x4  ble.o [1]
  .bss                zero     0x20013c60      0x4  ble.o [1]
  .bss                zero     0x20013c64      0x4  ble.o [1]
  .bss                zero     0x20013c68      0x4  ble.o [1]
  .bss                zero     0x20013c6c      0x4  can.o [1]
  .bss                zero     0x20013c70      0x4  can.o [1]
  .bss                zero     0x20013c74      0x4  cli.o [1]
  .bss                zero     0x20013c78      0x4  cli.o [1]
  .bss                zero     0x20013c7c      0x4  cli.o [1]
  .bss                zero     0x20013c80      0x4  cli.o [1]
  .bss                zero     0x20013c84      0x4  cli.o [1]
  .bss                zero     0x20013c88      0x4  debug.o [1]
  .bss                zero     0x20013c8c      0x4  dtg.o [1]
  .bss                zero     0x20013c90      0x4  dtg.o [1]
  .bss                zero     0x20013c94      0x4  dtg.o [1]
  .bss                zero     0x20013c98      0x4  dtg.o [1]
  .bss                zero     0x20013c9c      0x4  dtg.o [1]
  .bss                zero     0x20013ca0      0x4  dtg.o [1]
  .bss                zero     0x20013ca4      0x4  dtg.o [1]
  .bss                zero     0x20013ca8      0x4  dtg.o [1]
  .bss                zero     0x20013cac      0x4  dtg.o [1]
  .bss                zero     0x20013cb0      0x4  dtg.o [1]
  .bss                zero     0x20013cb4      0x4  dtg.o [1]
  .bss                zero     0x20013cb8      0x4  dtg.o [1]
  .bss                zero     0x20013cbc      0x4  dtg.o [1]
  .bss                zero     0x20013cc0      0x4  dtg.o [1]
  .bss                zero     0x20013cc4      0x4  dtg.o [1]
  .bss                zero     0x20013cc8      0x4  dtg.o [1]
  .bss                zero     0x20013ccc      0x4  dtg.o [1]
  .bss                zero     0x20013cd0      0x4  dtg.o [1]
  .bss                zero     0x20013cd4      0x4  dtg.o [1]
  .bss                zero     0x20013cd8      0x4  dtg.o [1]
  .bss                zero     0x20013cdc      0x4  dtg.o [1]
  .bss                zero     0x20013ce0      0x4  dtg.o [1]
  .bss                zero     0x20013ce4      0x4  dtg.o [1]
  .bss                zero     0x20013ce8      0x4  extern.o [1]
  .bss                zero     0x20013cec      0x4  extern.o [1]
  .bss                zero     0x20013cf0      0x4  extern.o [1]
  .bss                zero     0x20013cf4      0x4  fatfs.o [1]
  .bss                zero     0x20013cf8      0x4  ff.o [1]
  .bss                zero     0x20013cfc      0x4  fsmc_nand.o [1]
  .bss                zero     0x20013d00      0x4  fsmc_nand.o [1]
  .bss                zero     0x20013d04      0x4  fsmc_nand.o [1]
  .bss                zero     0x20013d08      0x4  gui.o [1]
  .bss                zero     0x20013d0c      0x4  gui.o [1]
  .bss                zero     0x20013d10      0x4  gui.o [1]
  .bss                zero     0x20013d14      0x4  gui.o [1]
  .bss                zero     0x20013d18      0x4  gui.o [1]
  .bss                zero     0x20013d1c      0x4  gui.o [1]
  .bss                zero     0x20013d20      0x4  gui.o [1]
  .bss                zero     0x20013d24      0x4  heap_4.o [1]
  .bss                zero     0x20013d28      0x4  heap_4.o [1]
  .bss                zero     0x20013d2c      0x4  heap_4.o [1]
  .bss                zero     0x20013d30      0x4  heap_4.o [1]
  .bss                zero     0x20013d34      0x4  i2c_fram.o [1]
  .bss                zero     0x20013d38      0x4  i2c_lcd.o [1]
  .bss                zero     0x20013d3c      0x4  main.o [1]
  .bss                zero     0x20013d40      0x4  main.o [1]
  .bss                zero     0x20013d44      0x4  main.o [1]
  .bss                zero     0x20013d48      0x4  main.o [1]
  .bss                zero     0x20013d4c      0x4  main.o [1]
  .bss                zero     0x20013d50      0x4  main.o [1]
  .bss                zero     0x20013d54      0x4  main.o [1]
  .bss                zero     0x20013d58      0x4  main.o [1]
  .bss                zero     0x20013d5c      0x4  main.o [1]
  .bss                zero     0x20013d60      0x4  main.o [1]
  .bss                zero     0x20013d64      0x4  main.o [1]
  .bss                zero     0x20013d68      0x4  modem.o [1]
  .bss                zero     0x20013d6c      0x4  modem.o [1]
  .bss                zero     0x20013d70      0x4  modem.o [1]
  .bss                zero     0x20013d74      0x4  modem.o [1]
  .bss                zero     0x20013d78      0x4  modem.o [1]
  .bss                zero     0x20013d7c      0x4  modem.o [1]
  .bss                zero     0x20013d80      0x4  modem.o [1]
  .bss                zero     0x20013d84      0x4  modem.o [1]
  .bss                zero     0x20013d88      0x4  modem.o [1]
  .bss                zero     0x20013d8c      0x4  modem.o [1]
  .bss                zero     0x20013d90      0x4  modem.o [1]
  .bss                zero     0x20013d94      0x4  modem.o [1]
  .bss                zero     0x20013d98      0x4  modem.o [1]
  .bss                zero     0x20013d9c      0x4  modem_Loop.o [1]
  .bss                zero     0x20013da0      0x4  modem_Loop.o [1]
  .bss                zero     0x20013da4      0x4  modem_Loop.o [1]
  .bss                zero     0x20013da8      0x4  modem_sms.o [1]
  .bss                zero     0x20013dac      0x4  modem_sms.o [1]
  .bss                zero     0x20013db0      0x4  port.o [1]
  .bss                zero     0x20013db4      0x4  rtc.o [1]
  .bss                zero     0x20013db8      0x4  rtc.o [1]
  .bss                zero     0x20013dbc      0x4  spi_flash.o [1]
  .bss                zero     0x20013dc0      0x4  stm32f4xx_hal.o [1]
  .bss                zero     0x20013dc4      0x4  stm32f4xx_hal_msp.o [1]
  .bss                zero     0x20013dc8      0x4  stm32f4xx_hal_msp.o [1]
  .bss                zero     0x20013dcc      0x4  tasks.o [1]
  .bss                zero     0x20013dd0      0x4  tasks.o [1]
  .bss                zero     0x20013dd4      0x4  tasks.o [1]
  .bss                zero     0x20013dd8      0x4  tasks.o [1]
  .bss                zero     0x20013ddc      0x4  tasks.o [1]
  .bss                zero     0x20013de0      0x4  tasks.o [1]
  .bss                zero     0x20013de4      0x4  tasks.o [1]
  .bss                zero     0x20013de8      0x4  tasks.o [1]
  .bss                zero     0x20013dec      0x4  tasks.o [1]
  .bss                zero     0x20013df0      0x4  tasks.o [1]
  .bss                zero     0x20013df4      0x4  tasks.o [1]
  .bss                zero     0x20013df8      0x4  tasks.o [1]
  .bss                zero     0x20013dfc      0x4  tasks.o [1]
  .bss                zero     0x20013e00      0x4  tasks.o [1]
  .bss                zero     0x20013e04      0x4  tasks.o [1]
  .bss                zero     0x20013e08      0x4  test_jig.o [1]
  .bss                zero     0x20013e0c      0x4  timer.o [1]
  .bss                zero     0x20013e10      0x4  timers.o [1]
  .bss                zero     0x20013e14      0x4  timers.o [1]
  .bss                zero     0x20013e18      0x4  timers.o [1]
  .bss                zero     0x20013e1c      0x4  timers.o [1]
  .bss                zero     0x20013e20      0x4  timers.o [1]
  .bss                zero     0x20013e24      0x4  usbuser.o [1]
  .bss                zero     0x20013e28      0x4  usbuser.o [1]
  .bss                zero     0x20013e2c      0x4  usbuser.o [1]
  .bss                zero     0x20013e30      0x4  xgetmemchunk.o [3]
  .bss                zero     0x20013e34      0x2  adc.o [1]
  .bss                zero     0x20013e36      0x2  ble.o [1]
  .bss                zero     0x20013e38      0x2  ble.o [1]
  .bss                zero     0x20013e3a      0x2  ble.o [1]
  .bss                zero     0x20013e3c      0x2  ble.o [1]
  .bss                zero     0x20013e3e      0x2  ble.o [1]
  .bss                zero     0x20013e40      0x2  ble.o [1]
  .bss                zero     0x20013e42      0x2  cli.o [1]
  .bss                zero     0x20013e44      0x2  cli.o [1]
  .bss                zero     0x20013e46      0x2  cli.o [1]
  .bss                zero     0x20013e48      0x2  dtg.o [1]
  .bss                zero     0x20013e4a      0x2  dtg.o [1]
  .bss                zero     0x20013e4c      0x2  dtg.o [1]
  .bss                zero     0x20013e4e      0x2  dtg.o [1]
  .bss                zero     0x20013e50      0x2  dtg.o [1]
  .bss                zero     0x20013e52      0x2  dtg.o [1]
  .bss                zero     0x20013e54      0x2  dtg.o [1]
  .bss                zero     0x20013e56      0x2  dtg.o [1]
  .bss                zero     0x20013e58      0x2  ff.o [1]
  .bss                zero     0x20013e5a      0x2  fsmc_nand.o [1]
  .bss                zero     0x20013e5c      0x2  fsmc_nand.o [1]
  .bss                zero     0x20013e5e      0x2  fsmc_nand.o [1]
  .bss                zero     0x20013e60      0x2  fsmc_nand.o [1]
  .bss                zero     0x20013e62      0x2  gui.o [1]
  .bss                zero     0x20013e64      0x2  gui.o [1]
  .bss                zero     0x20013e66      0x2  gui.o [1]
  .bss                zero     0x20013e68      0x2  gui.o [1]
  .bss                zero     0x20013e6a      0x2  gui.o [1]
  .bss                zero     0x20013e6c      0x2  gui.o [1]
  .bss                zero     0x20013e6e      0x2  gui.o [1]
  .bss                zero     0x20013e70      0x2  modem.o [1]
  .bss                zero     0x20013e72      0x2  modem.o [1]
  .bss                zero     0x20013e74      0x2  modem.o [1]
  .bss                zero     0x20013e76      0x2  modem.o [1]
  .bss                zero     0x20013e78      0x2  modem_sms.o [1]
  .bss                zero     0x20013e7a      0x2  modem_tool.o [1]
  .bss                zero     0x20013e7c      0x2  modem_tool.o [1]
  .bss                zero     0x20013e7e      0x2  nmeap.o [1]
  .bss                zero     0x20013e80      0x2  nmeap.o [1]
  .bss                zero     0x20013e82      0x2  test_jig.o [1]
  .bss                zero     0x20013e84      0x2  test_jig.o [1]
  .bss                zero     0x20013e86      0x1  ble.o [1]
  .bss                zero     0x20013e87      0x1  ble.o [1]
  .bss                zero     0x20013e88      0x1  ble.o [1]
  .bss                zero     0x20013e89      0x1  ble.o [1]
  .bss                zero     0x20013e8a      0x1  ble.o [1]
  .bss                zero     0x20013e8b      0x1  ble.o [1]
  .bss                zero     0x20013e8c      0x1  ble.o [1]
  .bss                zero     0x20013e8d      0x1  ble.o [1]
  .bss                zero     0x20013e8e      0x1  ble.o [1]
  .bss                zero     0x20013e8f      0x1  ble.o [1]
  .bss                zero     0x20013e90      0x1  ble.o [1]
  .bss                zero     0x20013e91      0x1  ble.o [1]
  .bss                zero     0x20013e92      0x1  can.o [1]
  .bss                zero     0x20013e93      0x1  can.o [1]
  .bss                zero     0x20013e94      0x1  can.o [1]
  .bss                zero     0x20013e95      0x1  cli.o [1]
  .bss                zero     0x20013e96      0x1  dtg.o [1]
  .bss                zero     0x20013e97      0x1  dtg.o [1]
  .bss                zero     0x20013e98      0x1  dtg.o [1]
  .bss                zero     0x20013e99      0x1  dtg.o [1]
  .bss                zero     0x20013e9a      0x1  dtg.o [1]
  .bss                zero     0x20013e9b      0x1  dtg.o [1]
  .bss                zero     0x20013e9c      0x1  dtg.o [1]
  .bss                zero     0x20013e9d      0x1  dtg.o [1]
  .bss                zero     0x20013e9e      0x1  dtg.o [1]
  .bss                zero     0x20013e9f      0x1  dtg.o [1]
  .bss                zero     0x20013ea0      0x1  dtg.o [1]
  .bss                zero     0x20013ea1      0x1  dtg.o [1]
  .bss                zero     0x20013ea2      0x1  dtg.o [1]
  .bss                zero     0x20013ea3      0x1  dtg.o [1]
  .bss                zero     0x20013ea4      0x1  dtg.o [1]
  .bss                zero     0x20013ea5      0x1  dtg.o [1]
  .bss                zero     0x20013ea6      0x1  dtg.o [1]
  .bss                zero     0x20013ea7      0x1  dtg.o [1]
  .bss                zero     0x20013ea8      0x1  fatfs.o [1]
  .bss                zero     0x20013ea9      0x1  fsmc_nand.o [1]
  .bss                zero     0x20013eaa      0x1  fsmc_nand.o [1]
  .bss                zero     0x20013eab      0x1  gui.o [1]
  .bss                zero     0x20013eac      0x1  gui.o [1]
  .bss                zero     0x20013ead      0x1  gui.o [1]
  .bss                zero     0x20013eae      0x1  gui.o [1]
  .bss                zero     0x20013eaf      0x1  gui.o [1]
  .bss                zero     0x20013eb0      0x1  gui.o [1]
  .bss                zero     0x20013eb1      0x1  gui.o [1]
  .bss                zero     0x20013eb2      0x1  gui.o [1]
  .bss                zero     0x20013eb3      0x1  gui.o [1]
  .bss                zero     0x20013eb4      0x1  gui.o [1]
  .bss                zero     0x20013eb5      0x1  gui.o [1]
  .bss                zero     0x20013eb6      0x1  gui.o [1]
  .bss                zero     0x20013eb7      0x1  gui.o [1]
  .bss                zero     0x20013eb8      0x1  gui.o [1]
  .bss                zero     0x20013eb9      0x1  gui.o [1]
  .bss                zero     0x20013eba      0x1  gui.o [1]
  .bss                zero     0x20013ebb      0x1  gui.o [1]
  .bss                zero     0x20013ebc      0x1  gui.o [1]
  .bss                zero     0x20013ebd      0x1  gui.o [1]
  .bss                zero     0x20013ebe      0x1  gui.o [1]
  .bss                zero     0x20013ebf      0x1  gui.o [1]
  .bss                zero     0x20013ec0      0x1  gui.o [1]
  .bss                zero     0x20013ec1      0x1  gui.o [1]
  .bss                zero     0x20013ec2      0x1  gui.o [1]
  .bss                zero     0x20013ec3      0x1  gui.o [1]
  .bss                zero     0x20013ec4      0x1  gui.o [1]
  .bss                zero     0x20013ec5      0x1  gui.o [1]
  .bss                zero     0x20013ec6      0x1  i2c_fram.o [1]
  .bss                zero     0x20013ec7      0x1  i2c_fram.o [1]
  .bss                zero     0x20013ec8      0x1  i2c_gsensor.o [1]
  .bss                zero     0x20013ec9      0x1  i2c_gsensor.o [1]
  .bss                zero     0x20013eca      0x1  i2c_gsensor.o [1]
  .bss                zero     0x20013ecb      0x1  i2c_gsensor.o [1]
  .bss                zero     0x20013ecc      0x1  i2c_lcd.o [1]
  .bss                zero     0x20013ecd      0x1  i2c_lcd.o [1]
  .bss                zero     0x20013ece      0x1  main.o [1]
  .bss                zero     0x20013ecf      0x1  modem.o [1]
  .bss                zero     0x20013ed0      0x1  modem.o [1]
  .bss                zero     0x20013ed1      0x1  modem.o [1]
  .bss                zero     0x20013ed2      0x1  modem.o [1]
  .bss                zero     0x20013ed3      0x1  modem.o [1]
  .bss                zero     0x20013ed4      0x1  modem.o [1]
  .bss                zero     0x20013ed5      0x1  modem.o [1]
  .bss                zero     0x20013ed6      0x1  modem.o [1]
  .bss                zero     0x20013ed7      0x1  modem.o [1]
  .bss                zero     0x20013ed8      0x1  modem.o [1]
  .bss                zero     0x20013ed9      0x1  modem.o [1]
  .bss                zero     0x20013eda      0x1  modem.o [1]
  .bss                zero     0x20013edb      0x1  modem.o [1]
  .bss                zero     0x20013edc      0x1  modem.o [1]
  .bss                zero     0x20013edd      0x1  modem.o [1]
  .bss                zero     0x20013ede      0x1  modem.o [1]
  .bss                zero     0x20013edf      0x1  modem.o [1]
  .bss                zero     0x20013ee0      0x1  modem.o [1]
  .bss                zero     0x20013ee1      0x1  modem.o [1]
  .bss                zero     0x20013ee2      0x1  modem.o [1]
  .bss                zero     0x20013ee3      0x1  modem.o [1]
  .bss                zero     0x20013ee4      0x1  modem.o [1]
  .bss                zero     0x20013ee5      0x1  modem.o [1]
  .bss                zero     0x20013ee6      0x1  modem.o [1]
  .bss                zero     0x20013ee7      0x1  modem.o [1]
  .bss                zero     0x20013ee8      0x1  modem.o [1]
  .bss                zero     0x20013ee9      0x1  modem.o [1]
  .bss                zero     0x20013eea      0x1  modem.o [1]
  .bss                zero     0x20013eeb      0x1  modem.o [1]
  .bss                zero     0x20013eec      0x1  modem.o [1]
  .bss                zero     0x20013eed      0x1  modem.o [1]
  .bss                zero     0x20013eee      0x1  modem.o [1]
  .bss                zero     0x20013eef      0x1  modem.o [1]
  .bss                zero     0x20013ef0      0x1  modem.o [1]
  .bss                zero     0x20013ef1      0x1  modem.o [1]
  .bss                zero     0x20013ef2      0x1  modem.o [1]
  .bss                zero     0x20013ef3      0x1  modem.o [1]
  .bss                zero     0x20013ef4      0x1  modem_Loop.o [1]
  .bss                zero     0x20013ef5      0x1  modem_Loop.o [1]
  .bss                zero     0x20013ef6      0x1  modem_Loop.o [1]
  .bss                zero     0x20013ef7      0x1  modem_sms.o [1]
  .bss                zero     0x20013ef8      0x1  modem_sms.o [1]
  .bss                zero     0x20013ef9      0x1  modem_sms.o [1]
  .bss                zero     0x20013efa      0x1  modem_tool.o [1]
  .bss                zero     0x20013efb      0x1  modem_tool.o [1]
  .bss                zero     0x20013efc      0x1  modem_tool.o [1]
  .bss                zero     0x20013efd      0x1  modem_tool.o [1]
  .bss                zero     0x20013efe      0x1  modem_tool.o [1]
  .bss                zero     0x20013eff      0x1  modem_tool.o [1]
  .bss                zero     0x20013f00      0x1  modem_tool.o [1]
  .bss                zero     0x20013f01      0x1  modem_tool.o [1]
  .bss                zero     0x20013f02      0x1  modem_tool.o [1]
  .bss                zero     0x20013f03      0x1  modem_tool.o [1]
  .bss                zero     0x20013f04      0x1  nmeap.o [1]
  .bss                zero     0x20013f05      0x1  nmeap.o [1]
  .bss                zero     0x20013f06      0x1  nmeap.o [1]
  .bss                zero     0x20013f07      0x1  nmeap.o [1]
  .bss                zero     0x20013f08      0x1  nmeap.o [1]
  .bss                zero     0x20013f09      0x1  nmeap.o [1]
  .bss                zero     0x20013f0a      0x1  nmeap.o [1]
  .bss                zero     0x20013f0b      0x1  nmeap.o [1]
  .bss                zero     0x20013f0c      0x1  port.o [1]
  .bss                zero     0x20013f0d      0x1  test_jig.o [1]
  .bss                zero     0x20013f0e      0x1  test_jig.o [1]
  .bss                zero     0x20013f0f      0x1  test_jig.o [1]
  .bss                zero     0x20013f10      0x1  test_jig.o [1]
  .bss                zero     0x20013f11      0x1  test_jig.o [1]
  .bss                zero     0x20013f12      0x1  test_jig.o [1]
  .bss                zero     0x20013f13      0x1  test_jig.o [1]
  .bss                zero     0x20013f14      0x1  uart.o [1]
  .bss                zero     0x20013f15      0x1  uart.o [1]
  .bss                zero     0x20013f16      0x1  uart.o [1]
  .bss                zero     0x20013f17      0x1  uart.o [1]
  .bss                zero     0x20013f18      0x1  uart.o [1]
  .bss                zero     0x20013f19      0x1  uart.o [1]
  .bss                zero     0x20013f1a      0x1  usb_host.o [1]
  .bss                zero     0x20013f1b      0x1  usbuser.o [1]
  .bss                zero     0x20013f1c      0x1  usbuser.o [1]
  .bss                zero     0x20013f1d      0x1  usbuser.o [1]
  .bss                zero     0x20013f1e      0x1  usbuser.o [1]
  .bss                zero     0x20013f1f      0x1  usbuser.o [1]
  .bss                zero     0x20013f20      0x1  usbuser.o [1]
  .bss                zero     0x20013f21      0x1  usbuser.o [1]
  .bss                zero     0x20013f22      0x1  usbuser.o [1]
  .bss                zero     0x20013f23      0x1  usbuser.o [1]
  .bss                zero     0x20013f24      0x1  usbuser.o [1]
  .bss                zero     0x20013f25      0x1  usbuser.o [1]
  .bss                zero     0x20013f26      0x1  usbuser.o [1]
  .bss                zero     0x20013f27      0x1  usbuser.o [1]
  .bss                zero     0x20013f28      0x1  usbuser.o [1]
                             - 0x20013f29   0xdd21


*******************************************************************************
*** INIT TABLE
***

          Address     Size
          -------     ----
Zero (__iar_zero_init3)
    2 destination ranges, total size 0x12821:
          0x10000000  0x4b00
          0x20006208  0xdd21

Copy/packbits (__iar_packbits_init_single3)
    1 source range, total size 0x4a (14% of destination):
          0x08040f14    0x4a
    1 destination range, total size 0x207:
          0x20000000   0x207



*******************************************************************************
*** MODULE SUMMARY
***

    Module                        ro code  ro data  rw data
    ------                        -------  -------  -------
E:\Today\240513_Limiter_Release_0513\V3.3.2.3_CC_Limiter_V2.0_ADC\EWARM\Mini_DTG\Obj: [1]
    adc.o                             296       80      170
    ble.o                           5 072      192    1 328
    bsp_int.o                         688       84
    can.o                           7 272       88      331
    cli.o                           1 620      541    2 300
    cmsis_os.o                        524
    debug.o                           448      216        4
    delay.o                            36
    diskio.o                          176
    dtg.o                           9 856      568   20 414
    extern.o                        1 820      564       24
    fatfs.o                            84             1 121
    ff.o                            9 516    4 736        6
    ff_gen_drv.o                      100                12
    freertos.o                          4
    fsmc_nand.o                     3 340      368    5 322
    gui.o                          14 352    1 548      169
    heap_4.o                          608        4   16 408
    i2c_fram.o                      2 792      196        6
    i2c_gsensor.o                   1 936        8       44
    i2c_lcd.o                       2 286   18 912        6
    list.o                            152
    main.o                          1 812      424       57
    modem.o                        12 712    1 989   11 939
    modem_Loop.o                    5 600      256    4 159
    modem_sms.o                     7 016      688      125
    modem_tool.o                    1 936             1 294
    nmeap.o                         2 860      388    1 516
    port.o                            596        4        9
    portasm.o                         168
    queue.o                         2 202                64
    rtc.o                             976      116      148
    spi_flash.o                        44        4        4
    startup_stm32f407xx.o             660
    stm32f4xx_hal.o                   116                 4
    stm32f4xx_hal_adc.o             1 294
    stm32f4xx_hal_can.o             2 632
    stm32f4xx_hal_cortex.o            360
    stm32f4xx_hal_dma.o             1 164        8
    stm32f4xx_hal_gpio.o              928
    stm32f4xx_hal_hcd.o             4 336
    stm32f4xx_hal_iwdg.o               80
    stm32f4xx_hal_msp.o             1 584       84        8
    stm32f4xx_hal_nand.o              106
    stm32f4xx_hal_pwr.o                12
    stm32f4xx_hal_pwr_ex.o             52
    stm32f4xx_hal_rcc.o             1 616
    stm32f4xx_hal_rcc_ex.o            360
    stm32f4xx_hal_rtc.o             1 050
    stm32f4xx_hal_rtc_ex.o            444
    stm32f4xx_hal_tim.o             2 402
    stm32f4xx_hal_tim_ex.o             96
    stm32f4xx_hal_timebase_TIM.o      144                60
    stm32f4xx_hal_uart.o            1 960
    stm32f4xx_it.o                    632       64
    stm32f4xx_ll_fsmc.o               184
    stm32f4xx_ll_usb.o              2 306
    sys_struct.o                      100               108
    system_stm32f4xx.o                112       25        4
    tasks.o                         2 780        8      400
    test_jig.o                      1 868             4 119
    timer.o                           328       84      184
    timers.o                        1 136       16       60
    uart.o                            740       84      390
    usb_host.o                        100               969
    usbh_conf.o                       900       76      664
    usbh_core.o                     1 458
    usbh_ctlreq.o                   1 398
    usbh_diskio.o                     316       20
    usbh_ioreq.o                      208
    usbh_msc.o                      2 264        8       32
    usbh_msc_bot.o                    896
    usbh_msc_scsi.o                   974
    usbh_pipes.o                      162
    usbuser.o                       4 604      823    1 390
    -------------------------------------------------------
    Total:                        143 762   33 274   75 372

command line: [2]
    -------------------------------------------------------
    Total:

dl7M_tlf.a: [3]
    abort.o                             6
    abs.o                               8
    atoi.o                              8
    div.o                              14
    dlmalloc.o                      5 364               496
    errno.o                            12                 4
    exit.o                              4
    getzone.o                          10
    gmtime.o                           10
    isalnum.o                          26
    isxdigit.o                         30
    isxxx.o                            40
    localeconv.o                      108       20      136
    localtim.o                        168        1        8
    low_level_init.o                    4
    mktime.o                          244
    rand.o                            224       20      140
    setlocale.o                        84       17      116
    sprintf.o                          52
    srand.o                            32
    sscanf.o                           36
    strncmp.o                          44
    strstr.o                           46
    tolower.o                          20
    vsprintf.o                         44
    xencoding_sb.o                     96
    xgetdst.o                         350
    xgetmemchunk.o                     44                 4
    xgettime.o                         66
    xisdst.o                          328        1        4
    xisdstData.o                                          4
    xlocale_c.o                        54
    xmbcurmax.o                        10
    xmbtowc.o                          32
    xprintffull.o                   4 510
    xscanffull.o                    3 312
    xsprout.o                          10
    xsscin.o                           30
    xstoflt.o                         464
    xstol.o                           136
    xstoll.o                          166
    xstopfx.o                         290
    xstoul.o                          408
    xstoull.o                         432
    xstoxflt.o                        564
    xtls.o                              2
    xttotm.o                          444        6       44
    xwctob.o                           64
    xwctomb.o                          26
    -------------------------------------------------------
    Total:                         18 476       65      956

m7M_tls.a: [4]
    DblAdd.o                          232
    DblCmpEq.o                         32
    DblCmpGe.o                         46
    DblCmpLe.o                         46
    DblDiv.o                          598
    DblMul.o                          418
    DblSub.o                          384
    DblToFlt.o                        144
    DblToI32.o                         88
    I32ToDbl.o                         48
    atof.o                             16
    fpinit_M.o                         34
    xdnorm.o                           68
    xdscale.o                         276
    xdtento.o                         512
    xdunscal.o                         82
    xstod.o                           360
    xstold.o                          360
    -------------------------------------------------------
    Total:                          3 744

rt7M_tl.a: [5]
    ABImemclr4.o                        6
    ABImemcpy_unaligned.o             118
    ABImemset.o                       102
    ABImemset48.o                      50
    I64DivMod.o                       238
    I64DivZer.o                         2
    cexit.o                            10
    cmain.o                            26
    cstartup_M.o                       12
    data_init.o                        40
    memchr.o                           88
    packbits_init_single.o             56
    strchr.o                           22
    strcmp_unaligned.o                 66
    strlen.o                           54
    strncpy_unaligned.o               108
    zero_init3.o                       64
    -------------------------------------------------------
    Total:                          1 062

shb_l.a: [6]
    ABIassert.o                        36
    exit.o                             20
    -------------------------------------------------------
    Total:                             56

    Gaps                               57        6
    Linker created                              40   24 576
-----------------------------------------------------------
    Grand Total:                  167 157   33 385  100 904


*******************************************************************************
*** ENTRY LIST
***

Entry                      Address    Size  Type      Object
-----                      -------    ----  ----      ------
.iar.init_table$$Base   0x0803f590           --   Gb  - Linker created -
.iar.init_table$$Limit  0x0803f5b8           --   Gb  - Linker created -
?main                   0x0803fb01          Code  Gb  cmain.o [5]
ADC1ConvertedValue      0x20013e34     0x2  Data  Gb  adc.o [1]
ADC_DMAConvCplt         0x0802db6d    0x6a  Code  Lc  stm32f4xx_hal_adc.o [1]
ADC_DMAError            0x0802dbe5    0x16  Code  Lc  stm32f4xx_hal_adc.o [1]
ADC_DMAHalfConvCplt     0x0802dbd9     0xa  Code  Lc  stm32f4xx_hal_adc.o [1]
ADC_Init                0x0802d9fb   0x158  Code  Lc  stm32f4xx_hal_adc.o [1]
AHBPrescTable           0x0804077c    0x10  Data  Gb  system_stm32f4xx.o [1]
APBPrescTable           0x08040db0     0x8  Data  Gb  system_stm32f4xx.o [1]
APNProcess              0x080165e9   0x2fa  Code  Gb  modem.o [1]
APNProcessCnt           0x20013e72     0x2  Data  Gb  modem.o [1]
APN_Name                0x20013950    0x20  Data  Gb  modem.o [1]
ATCmdRxMsg              0x20012090   0x140  Data  Gb  modem.o [1]
AT_Response             0x200124e8   0x100  Data  Gb  modem.o [1]
AT_SendWithRecieveCNUM  0x080160d7    0xd4  Code  Gb  modem.o [1]
AT_SendWithRecieveData  0x08015d91   0x136  Code  Gb  modem.o [1]
AT_SendWithRecieveData2
                        0x08015ec7   0x15c  Code  Gb  modem.o [1]
AT_SetFlag              0x20013e91     0x1  Data  Gb  ble.o [1]
AccTestFlag             0x20013e9d     0x1  Data  Gb  dtg.o [1]
Appli_state             0x20013f1a     0x1  Data  Gb  usb_host.o [1]
Approval_No             0x0804085c     0xc  Data  Gb  extern.o [1]
Argument                0x0801b9ab     0xa  Code  Gb  cli.o [1]
AsciiToVal              0x080206ef    0x56  Code  Gb  extern.o [1]
BK_Sram_Addr            0x20013e5a     0x2  Data  Gb  fsmc_nand.o [1]
BLE_ATCmdRxMsg          0x2001313c    0x60  Data  Gb  ble.o [1]
BLE_AT_Response         0x20012fb0    0x64  Data  Gb  ble.o [1]
BLE_AT_SendWithRecieveData
                        0x08024a43   0x144  Code  Gb  ble.o [1]
BLE_Adver_Name          0x08024bdf    0xd2  Code  Gb  ble.o [1]
BLE_CommCheck           0x08024b87    0x2c  Code  Gb  ble.o [1]
BLE_Current             0x20013c5c     0x4  Data  Gb  ble.o [1]
BLE_Data_Decode         0x08024f6d   0x724  Code  Gb  ble.o [1]
BLE_Device_Name         0x08024cb1    0x54  Code  Gb  ble.o [1]
BLE_Init                0x08024d81    0xe0  Code  Gb  ble.o [1]
BLE_InitFLag            0x20013e86     0x1  Data  Gb  ble.o [1]
BLE_IntFlag             0x20013e89     0x1  Data  Gb  ble.o [1]
BLE_LastFLag            0x20013e8d     0x1  Data  Gb  ble.o [1]
BLE_MSG_RxBuf           0x200123e8   0x100  Data  Gb  ble.o [1]
BLE_PinCode             0x20013be8     0x8  Data  Gb  ble.o [1]
BLE_PinCode_Generation  0x080258c9    0x2a  Code  Gb  ble.o [1]
BLE_Previous            0x20013c60     0x4  Data  Gb  ble.o [1]
BLE_RF_Power            0x08024d05    0x78  Code  Gb  ble.o [1]
BLE_Reset               0x08024bb3    0x2c  Code  Gb  ble.o [1]
BLE_RxBuf               0x200122e8   0x100  Data  Gb  ble.o [1]
BLE_RxHead              0x20013e36     0x2  Data  Gb  ble.o [1]
BLE_RxTail              0x20013e38     0x2  Data  Gb  ble.o [1]
BLE_SecData_Send        0x080258ad    0x16  Code  Gb  ble.o [1]
BLE_SendDataStr         0x08024e61    0x78  Code  Gb  ble.o [1]
BLE_SendFlag            0x20013e88     0x1  Data  Gb  ble.o [1]
BLE_SendHeaderFlag      0x20013e8c     0x1  Data  Gb  ble.o [1]
BLE_Send_Data           0x08024ed9    0x7e  Code  Gb  ble.o [1]
BLE_Send_SmartData      0x08025919   0x212  Code  Gb  ble.o [1]
BLE_SmartFlag           0x20013e8a     0x1  Data  Gb  ble.o [1]
BLE_SmartInfoFlag       0x20013e87     0x1  Data  Gb  ble.o [1]
BLE_SmartWaitFlag       0x20013e8b     0x1  Data  Gb  ble.o [1]
BLE_Step                0x20013e8f     0x1  Data  Gb  ble.o [1]
BLE_TxStrToModem        0x08024965    0x1c  Code  Gb  ble.o [1]
BLE_parse_proc          0x080256b5   0x1f4  Code  Gb  ble.o [1]
BLE_sendATcommand       0x08024981    0xc2  Code  Gb  ble.o [1]
BSP_BKSramSem           0x20013db8     0x4  Data  Gb  rtc.o [1]
BacklightFont           0x08040200    0x14  Data  Gb  gui.o [1]
Backlight_Cnt           0x20013eae     0x1  Data  Gb  gui.o [1]
Backligth_Sel           0x20013eaf     0x1  Data  Gb  gui.o [1]
BadBlockData            0x20012f48    0x68  Data  Gb  fsmc_nand.o [1]
BatteryVoltage          0x0801f895    0x40  Code  Gb  adc.o [1]
Ble_Wait_Cnt            0x20013e3a     0x2  Data  Gb  ble.o [1]
Btn_Right_Cnt           0x20013eb7     0x1  Data  Gb  gui.o [1]
Btn_Right_Old           0x20013eb8     0x1  Data  Gb  gui.o [1]
Btn_UpDn_Cnt            0x20013d0c     0x4  Data  Gb  gui.o [1]
Btn_UpDn_Old            0x20013d10     0x4  Data  Gb  gui.o [1]
Btn_UpDn_Sel            0x20013d14     0x4  Data  Gb  gui.o [1]
BusFault_Handler        0x0803e137    0x18  Code  Gb  stm32f4xx_it.o [1]
BuzzerOnCnt             0x20013ea0     0x1  Data  Gb  dtg.o [1]
BuzzerOnFlag            0x20013e9f     0x1  Data  Gb  dtg.o [1]
BuzzerTimeCnt           0x20013ea1     0x1  Data  Gb  dtg.o [1]
CAN1_RX0_IRQHandler     0x0803e185     0xa  Code  Gb  stm32f4xx_it.o [1]
CAN1_RX1_IRQHandler     0x0803e18f     0xa  Code  Gb  stm32f4xx_it.o [1]
CAN2_ID_List            0x08040bc8     0x8  Data  Gb  can.o [1]
CAN2_RX0_IRQHandler     0x0803e199     0xa  Code  Gb  stm32f4xx_it.o [1]
CAN2_RX1_IRQHandler     0x0803e1a3     0xa  Code  Gb  stm32f4xx_it.o [1]
CAN_Configuration       0x0801527d     0xc  Code  Gb  main.o [1]
CAN_Enable              0x20013c6c     0x4  Data  Gb  can.o [1]
CAN_ErrorCnt            0x20013e93     0x1  Data  Gb  can.o [1]
CAN_ErrorFlag           0x20013e92     0x1  Data  Gb  can.o [1]
CAN_Ext_Decode          0x0801e68d   0xf7e  Code  Gb  can.o [1]
CAN_Receive_IT          0x0802d503   0x1ba  Code  Lc  stm32f4xx_hal_can.o [1]
CAN_Std_Decode          0x0801e25b   0x3da  Code  Gb  can.o [1]
CAN_Transmit_IT         0x0802d4a9    0x5a  Code  Lc  stm32f4xx_hal_can.o [1]
CLI_GetArgCnt           0x0801b9b5     0x8  Code  Gb  cli.o [1]
CLI_Init                0x0801be37    0x1c  Code  Gb  cli.o [1]
CLI_RxBuf               0x2000fb3c   0x400  Data  Gb  cli.o [1]
CLI_RxHead              0x20013e42     0x2  Data  Gb  cli.o [1]
CLI_RxTail              0x20013e44     0x2  Data  Gb  cli.o [1]
CMD_NAND_id             0x0801d705    0xb0  Code  Gb  fsmc_nand.o [1]
CMPortEnable            0x20013ee3     0x1  Data  Gb  modem.o [1]
COM_Command_Char        0x20013eb4     0x1  Data  Gb  gui.o [1]
CSTACK$$Base            0x20000208           --   Gb  - Linker created -
CSTACK$$Limit           0x20004208           --   Gb  - Linker created -
CalDayCnt               0x0802061d    0x4e  Code  Gb  extern.o [1]
CanDisableCnt           0x20013c70     0x4  Data  Gb  can.o [1]
CarRegNoToVrn           0x08020793   0x1f2  Code  Gb  extern.o [1]
Car_No_Class            0x0803eafc    0x68  Data  Gb  dtg.o [1]
Car_No_Region           0x0803eff0    0x48  Data  Gb  dtg.o [1]
CheckAPNChange          0x08018681    0x36  Code  Gb  modem.o [1]
CheckBuzzerOn           0x0801a579    0xa8  Code  Gb  dtg.o [1]
CheckCanDisable         0x0801df21   0x33a  Code  Gb  can.o [1]
CheckGPSTimeSyc         0x080199e9   0x130  Code  Gb  dtg.o [1]
CheckPowerOff           0x0801ab55    0xe0  Code  Gb  dtg.o [1]
CheckUreaAlarm          0x08019bfd   0x6fe  Code  Gb  dtg.o [1]
CheckUreaBuzzer         0x0801a429   0x140  Code  Gb  dtg.o [1]
CheckUsbFault           0x08038c5d    0x62  Code  Gb  usbuser.o [1]
Check_FirmwareUpdate    0x08037ecd    0x4c  Code  Gb  usbuser.o [1]
Check_KeyCancel         0x080136a9    0x1a  Code  Gb  gui.o [1]
Check_Nand_Id           0x0801d617    0xee  Code  Gb  fsmc_nand.o [1]
ComRxAPN_Name           0x20013970    0x20  Data  Gb  modem.o [1]
CommaCnt                0x20013dac     0x4  Data  Gb  modem_sms.o [1]
Contrast                0x20013ecc     0x1  Data  Gb  i2c_lcd.o [1]
Contrast_Flag           0x20013ecd     0x1  Data  Gb  i2c_lcd.o [1]
Cur_CanEnableCnt        0x200139d0    0x1c  Data  Gb  can.o [1]
DELAY_1                 0x20013e4c     0x2  Data  Gb  dtg.o [1]
DELAY_2                 0x20013e4e     0x2  Data  Gb  dtg.o [1]
DELAY_3                 0x20013e50     0x2  Data  Gb  dtg.o [1]
DL_EndDay               0x20013c50     0x8  Data  Gb  usbuser.o [1]
DL_StartDay             0x20013c48     0x8  Data  Gb  usbuser.o [1]
DMA2_Stream0_IRQHandler
                        0x0803e2d9     0xa  Code  Gb  stm32f4xx_it.o [1]
DMA_CalcBaseAndBitshift
                        0x0802f20d    0x30  Code  Lc  stm32f4xx_hal_dma.o [1]
DMA_CalcBaseAndBitshift::flagBitshiftOffset
                        0x08040da8     0x8  Data  Lc  stm32f4xx_hal_dma.o [1]
DMA_CheckFifoParam      0x0802f249    0x88  Code  Lc  stm32f4xx_hal_dma.o [1]
DMA_SetConfig           0x0802f1df    0x2e  Code  Lc  stm32f4xx_hal_dma.o [1]
DTG_IntFlag             0x20013efb     0x1  Data  Gb  modem_tool.o [1]
DTG_SecData_Send        0x080202a5    0x14  Code  Gb  modem_tool.o [1]
DTG_SendFlag            0x20013efa     0x1  Data  Gb  modem_tool.o [1]
DailyData               0x20012d64    0x80  Data  Gb  dtg.o [1]
DailyData_Change        0x0801a98d    0xce  Code  Gb  dtg.o [1]
DataAddrToSend          0x20013d68     0x4  Data  Gb  modem.o [1]
DataSaveAddr            0x20013c90     0x4  Data  Gb  dtg.o [1]
DataSentAddr            0x20013c94     0x4  Data  Gb  dtg.o [1]
DataServerFlag          0x20013ecf     0x1  Data  Gb  modem.o [1]
DataServerRetryCount    0x20013d6c     0x4  Data  Gb  modem.o [1]
DataSvrStep             0x20013edb     0x1  Data  Gb  modem.o [1]
DataSvrWaitCount        0x20013d78     0x4  Data  Gb  modem.o [1]
DataTxContinue          0x20013ef6     0x1  Data  Gb  modem_Loop.o [1]
Data_Download           0x0803816d   0xa0e  Code  Gb  usbuser.o [1]
Day_Change              0x0801a969    0x1a  Code  Gb  dtg.o [1]
Day_Change_Flag         0x20013e97     0x1  Data  Gb  dtg.o [1]
Ddir                    0x200137e4    0x34  Data  Gb  usbuser.o [1]
DeInitStateMachine      0x080399b9    0x58  Code  Lc  usbh_core.o [1]
DebugMon_Handler        0x0803e167     0x2  Code  Gb  stm32f4xx_it.o [1]
DecodeRxData            0x08028c99   0x1e2  Code  Gb  test_jig.o [1]
DecodeSMS               0x080220f5  0x11c0  Code  Gb  modem_sms.o [1]
Decode_Command          0x08028e7d   0x3f8  Code  Gb  test_jig.o [1]
Disp_GSen_Val           0x20013eb9     0x1  Data  Gb  gui.o [1]
Disp_Init               0x080137c9    0x28  Code  Gb  gui.o [1]
Display                 0x080137fd    0x9c  Code  Gb  gui.o [1]
Display_CheckItem       0x0801035b   0x124  Code  Gb  gui.o [1]
Display_Flag            0x20013ead     0x1  Data  Gb  gui.o [1]
Display_Mode            0x20013eac     0x1  Data  Gb  gui.o [1]
DmsApnPushRxCnt         0x20013ef3     0x1  Data  Gb  modem.o [1]
DmsApnPushRxFlag        0x20013ef2     0x1  Data  Gb  modem.o [1]
DmsPushApnName          0x20013990    0x20  Data  Gb  modem.o [1]
Dnld_Day_Cnt            0x20013eb0     0x1  Data  Gb  gui.o [1]
Dnld_Hist               0x20013930    0x20  Data  Gb  gui.o [1]
Dnld_Hist_Cnt           0x20013eb1     0x1  Data  Gb  gui.o [1]
DownloadByDateFlag      0x20013f24     0x1  Data  Gb  usbuser.o [1]
DownloadDisplayInit     0x08010dd9    0x34  Code  Gb  gui.o [1]
DrvDataUpdate           0x0801a645   0x324  Code  Gb  dtg.o [1]
Drv_Regist_Mode         0x20013eb2     0x1  Data  Gb  gui.o [1]
Dtg_On_Time             0x20013ce4     0x4  Data  Gb  dtg.o [1]
EXTI4_IRQHandler        0x0803e2c5     0xa  Code  Gb  stm32f4xx_it.o [1]
EXTI9_5_IRQHandler      0x0803e2cf     0xa  Code  Gb  stm32f4xx_it.o [1]
E_font                  0x0803d8e8   0x800  Data  Gb  i2c_lcd.o [1]
ErrorDataCnt            0x20013e24     0x4  Data  Gb  usbuser.o [1]
FATFS_LinkDriver        0x08031c01     0xa  Code  Gb  ff_gen_drv.o [1]
FATFS_LinkDriverEx      0x08031bad    0x54  Code  Gb  ff_gen_drv.o [1]
FRAMByteRead            0x08014c1b    0x42  Code  Gb  i2c_fram.o [1]
FRAMByteRead::__func__  0x080404cc    0x10  Data  Lc  i2c_fram.o [1]
FRAMByteWrite           0x08014acf    0x4c  Code  Gb  i2c_fram.o [1]
FRAMByteWrite::__func__
                        0x080404ac    0x10  Data  Lc  i2c_fram.o [1]
FRAMMultiRead           0x08014c5d    0x46  Code  Gb  i2c_fram.o [1]
FRAMMultiRead::__func__
                        0x080404dc    0x10  Data  Lc  i2c_fram.o [1]
FRAMMultiWrite          0x08014b1b   0x100  Code  Gb  i2c_fram.o [1]
FRAMMultiWrite::__func__
                        0x080404bc    0x10  Data  Lc  i2c_fram.o [1]
FSMC_Initialized        0x20013dc8     0x4  Data  Lc  stm32f4xx_hal_msp.o [1]
FSMC_NAND_AttributeSpace_Timing_Init
                        0x08031b3d    0x36  Code  Gb  stm32f4xx_ll_fsmc.o [1]
FSMC_NAND_Badblock      0x0801d20f    0x96  Code  Gb  fsmc_nand.o [1]
FSMC_NAND_CommonSpace_Timing_Init
                        0x08031b07    0x36  Code  Gb  stm32f4xx_ll_fsmc.o [1]
FSMC_NAND_EraseBlock    0x0801d199    0x6a  Code  Gb  fsmc_nand.o [1]
FSMC_NAND_GetStatus     0x0801d01d    0x2a  Code  Gb  fsmc_nand.o [1]
FSMC_NAND_Init          0x08031ac1    0x46  Code  Gb  stm32f4xx_ll_fsmc.o [1]
FSMC_NAND_ReadData      0x0801ced5    0x58  Code  Gb  fsmc_nand.o [1]
FSMC_NAND_ReadSmallPage
                        0x0801d0ed    0x9e  Code  Gb  fsmc_nand.o [1]
FSMC_NAND_ReadStatus    0x0801cfef    0x2e  Code  Gb  fsmc_nand.o [1]
FSMC_NAND_Reset         0x0801d203     0xc  Code  Gb  fsmc_nand.o [1]
FSMC_NAND_WriteSmallPage
                        0x0801d047    0xa6  Code  Gb  fsmc_nand.o [1]
FSMC_NandSem            0x20013d04     0x4  Data  Gb  fsmc_nand.o [1]
FSMC_Nand_Init          0x0801ceb9    0x1c  Code  Gb  fsmc_nand.o [1]
FWDN_Svr                0x200133fc    0x40  Data  Gb  modem.o [1]
FW_Info                 0x20013c30     0x8  Data  Gb  modem_Loop.o [1]
FW_Ver_Key              0x08040868     0xc  Data  Gb  extern.o [1]
F_Name                  0x20013b88     0xc  Data  Gb  dtg.o [1]
F_Parameter             0x20013ea5     0x1  Data  Gb  dtg.o [1]
FatFs                   0x20013cf8     0x4  Data  Lc  ff.o [1]
FileCreate              0x0801ae51   0x100  Code  Gb  dtg.o [1]
FileSaveData            0x0801ac41   0x206  Code  Gb  dtg.o [1]
Finfo                   0x200121d0   0x118  Data  Gb  usbuser.o [1]
FistDailySetting        0x20012b78    0xe0  Data  Gb  usbuser.o [1]
FotaEnable              0x20013ee0     0x1  Data  Gb  modem.o [1]
FotaFlag                0x20013edf     0x1  Data  Gb  modem.o [1]
FotaRespFlag            0x20013ed8     0x1  Data  Gb  modem.o [1]
Fota_FW_Ver             0x20013b94     0xc  Data  Gb  extern.o [1]
Fresp                   0x20013f25     0x1  Data  Gb  usbuser.o [1]
Fsid                    0x20013e58     0x2  Data  Lc  ff.o [1]
GPSNotValidCount        0x20013cd0     0x4  Data  Gb  dtg.o [1]
GPS_Fault               0x20013f04     0x1  Data  Gb  nmeap.o [1]
GPS_Not_Valid_Cnt       0x20013f0a     0x1  Data  Gb  nmeap.o [1]
GPS_ResetProcess        0x0803d489     0x2  Code  Gb  nmeap.o [1]
GPS_Reset_Cnt           0x20013f05     0x1  Data  Gb  nmeap.o [1]
GPS_Reset_Flag          0x20013f06     0x1  Data  Gb  nmeap.o [1]
GPS_RxBuf               0x20011b78   0x200  Data  Gb  nmeap.o [1]
GPS_RxHead              0x20013e7e     0x2  Data  Gb  nmeap.o [1]
GPS_RxTail              0x20013e80     0x2  Data  Gb  nmeap.o [1]
GPS_SigWait_Cnt         0x20013f07     0x1  Data  Gb  nmeap.o [1]
GPS_Speed_Val           0x20013e98     0x1  Data  Gb  dtg.o [1]
GPS_SyncOKTime          0x20013cdc     0x4  Data  Gb  dtg.o [1]
GPS_Time_NoSyncCnt      0x20013ea7     0x1  Data  Gb  dtg.o [1]
GPS_Time_Sync           0x20013ea6     0x1  Data  Gb  dtg.o [1]
GPS_Valid               0x20013f08     0x1  Data  Gb  nmeap.o [1]
GPS_Valid_Char          0x20013f09     0x1  Data  Gb  nmeap.o [1]
GPS_parse_proc          0x0803d401    0x88  Code  Gb  nmeap.o [1]
GS_Offset               0x20013c28     0x8  Data  Gb  i2c_gsensor.o [1]
GS_Val                  0x20013c08     0x8  Data  Gb  i2c_gsensor.o [1]
GS_Val_Conv             0x20013c10     0x8  Data  Gb  i2c_gsensor.o [1]
GS_Val_Dir              0x20013c20     0x8  Data  Gb  i2c_gsensor.o [1]
GS_Val_Max              0x20013c18     0x8  Data  Gb  i2c_gsensor.o [1]
GSenConByte             0x20013eca     0x1  Data  Gb  i2c_gsensor.o [1]
GSenID                  0x20013ecb     0x1  Data  Gb  i2c_gsensor.o [1]
Gpck                    0x2000cb14  0x1028  Data  Gb  modem_Loop.o [1]
Gui_Concentration       0x20013ec4     0x1  Data  Gb  gui.o [1]
Gui_Count               0x20013d08     0x4  Data  Gb  gui.o [1]
Gui_DError              0x20013e6e     0x2  Data  Gb  gui.o [1]
Gui_DosingRate          0x20013d18     0x4  Data  Gb  gui.o [1]
Gui_MAF                 0x20013e6a     0x2  Data  Gb  gui.o [1]
Gui_NOxIn               0x20013e62     0x2  Data  Gb  gui.o [1]
Gui_NOxOut              0x20013e64     0x2  Data  Gb  gui.o [1]
Gui_Pedal               0x20013d1c     0x4  Data  Gb  gui.o [1]
Gui_RTC_Val             0x20013bf8     0x8  Data  Gb  gui.o [1]
Gui_SError              0x20013e6c     0x2  Data  Gb  gui.o [1]
Gui_Speed               0x20013ec5     0x1  Data  Gb  gui.o [1]
Gui_TempIn              0x20013e66     0x2  Data  Gb  gui.o [1]
Gui_TempOut             0x20013e68     0x2  Data  Gb  gui.o [1]
Gui_UreaLevel           0x20013ec3     0x1  Data  Gb  gui.o [1]
Gui_UreaTime            0x20013d20     0x4  Data  Gb  gui.o [1]
HAL_ADC_ConfigChannel   0x0802d87f   0x17c  Code  Gb  stm32f4xx_hal_adc.o [1]
HAL_ADC_ConvCpltCallback
                        0x0802d879     0x2  Code  Wk  stm32f4xx_hal_adc.o [1]
HAL_ADC_ConvHalfCpltCallback
                        0x0802d87b     0x2  Code  Wk  stm32f4xx_hal_adc.o [1]
HAL_ADC_ErrorCallback   0x0802d87d     0x2  Code  Wk  stm32f4xx_hal_adc.o [1]
HAL_ADC_Init            0x0802d6ed    0x66  Code  Gb  stm32f4xx_hal_adc.o [1]
HAL_ADC_MspInit         0x0802af37    0xc8  Code  Gb  stm32f4xx_hal_msp.o [1]
HAL_ADC_Start_DMA       0x0802d753   0x126  Code  Gb  stm32f4xx_hal_adc.o [1]
HAL_CAN_ConfigFilter    0x0802ce29   0x104  Code  Gb  stm32f4xx_hal_can.o [1]
HAL_CAN_DeInit          0x0802cf2d    0x28  Code  Gb  stm32f4xx_hal_can.o [1]
HAL_CAN_ErrorCallback   0x0802d4a7     0x2  Code  Wk  stm32f4xx_hal_can.o [1]
HAL_CAN_IRQHandler      0x0802d1ef   0x29a  Code  Gb  stm32f4xx_hal_can.o [1]
HAL_CAN_Init            0x0802cc75   0x1b4  Code  Gb  stm32f4xx_hal_can.o [1]
HAL_CAN_MspDeInit       0x0802b113    0x4e  Code  Gb  stm32f4xx_hal_msp.o [1]
HAL_CAN_MspInit         0x0802afff   0x114  Code  Gb  stm32f4xx_hal_msp.o [1]
HAL_CAN_Receive_IT      0x0802d1cb    0x24  Code  Gb  stm32f4xx_hal_can.o [1]
HAL_CAN_RxCpltCallback  0x0802a423    0x4c  Code  Gb  bsp_int.o [1]
HAL_CAN_Transmit        0x0802cf55   0x276  Code  Gb  stm32f4xx_hal_can.o [1]
HAL_CAN_TxCpltCallback  0x0802d4a5     0x2  Code  Wk  stm32f4xx_hal_can.o [1]
HAL_DMA_Abort_IT        0x0802efa5    0x26  Code  Gb  stm32f4xx_hal_dma.o [1]
HAL_DMA_IRQHandler      0x0802efcb   0x214  Code  Gb  stm32f4xx_hal_dma.o [1]
HAL_DMA_Init            0x0802ee45    0xe0  Code  Gb  stm32f4xx_hal_dma.o [1]
HAL_DMA_Start_IT        0x0802ef25    0x80  Code  Gb  stm32f4xx_hal_dma.o [1]
HAL_Delay               0x0801f7b1    0x1e  Code  Wk  stm32f4xx_hal.o [1]
HAL_FSMC_MspInit        0x0802b42b    0x6e  Code  Lc  stm32f4xx_hal_msp.o [1]
HAL_GPIO_DeInit         0x0801b56f   0x140  Code  Gb  stm32f4xx_hal_gpio.o [1]
HAL_GPIO_EXTI_Callback  0x0802a40b    0x18  Code  Gb  bsp_int.o [1]
HAL_GPIO_EXTI_IRQHandler
                        0x0801b6df    0x1a  Code  Gb  stm32f4xx_hal_gpio.o [1]
HAL_GPIO_Init           0x0801b395   0x1da  Code  Gb  stm32f4xx_hal_gpio.o [1]
HAL_GPIO_ReadPin        0x0801b6af    0x12  Code  Gb  stm32f4xx_hal_gpio.o [1]
HAL_GPIO_TogglePin      0x0801b6d5     0xa  Code  Gb  stm32f4xx_hal_gpio.o [1]
HAL_GPIO_WritePin       0x0801b6c1    0x14  Code  Gb  stm32f4xx_hal_gpio.o [1]
HAL_GetTick             0x0801f7ab     0x6  Code  Wk  stm32f4xx_hal.o [1]
HAL_HCD_Connect_Callback
                        0x0803a45f     0xc  Code  Gb  usbh_conf.o [1]
HAL_HCD_Disconnect_Callback
                        0x0803a46b     0xc  Code  Gb  usbh_conf.o [1]
HAL_HCD_GetCurrentFrame
                        0x0803b69b     0xa  Code  Gb  stm32f4xx_hal_hcd.o [1]
HAL_HCD_GetCurrentSpeed
                        0x0803b6a5     0xa  Code  Gb  stm32f4xx_hal_hcd.o [1]
HAL_HCD_HC_GetURBState  0x0803b681     0xe  Code  Gb  stm32f4xx_hal_hcd.o [1]
HAL_HCD_HC_GetXferCount
                        0x0803b68f     0xc  Code  Gb  stm32f4xx_hal_hcd.o [1]
HAL_HCD_HC_Halt         0x0803b25d    0x2c  Code  Gb  stm32f4xx_hal_hcd.o [1]
HAL_HCD_HC_Init         0x0803b1b1    0xac  Code  Gb  stm32f4xx_hal_hcd.o [1]
HAL_HCD_HC_NotifyURBChange_Callback
                        0x0803a477     0x2  Code  Gb  usbh_conf.o [1]
HAL_HCD_HC_SubmitRequest
                        0x0803b289   0x25c  Code  Gb  stm32f4xx_hal_hcd.o [1]
HAL_HCD_IRQHandler      0x0803b4e5   0x13e  Code  Gb  stm32f4xx_hal_hcd.o [1]
HAL_HCD_Init            0x0803b155    0x5c  Code  Gb  stm32f4xx_hal_hcd.o [1]
HAL_HCD_MspInit         0x0803a3bd    0x96  Code  Gb  usbh_conf.o [1]
HAL_HCD_ResetPort       0x0803b677     0xa  Code  Gb  stm32f4xx_hal_hcd.o [1]
HAL_HCD_SOF_Callback    0x0803a453     0xc  Code  Gb  usbh_conf.o [1]
HAL_HCD_Start           0x0803b623    0x2e  Code  Gb  stm32f4xx_hal_hcd.o [1]
HAL_HCD_Stop            0x0803b651    0x26  Code  Gb  stm32f4xx_hal_hcd.o [1]
HAL_IWDG_Init           0x0802056d    0x50  Code  Gb  stm32f4xx_hal_iwdg.o [1]
HAL_IncTick             0x0801f79f     0xc  Code  Wk  stm32f4xx_hal.o [1]
HAL_Init                0x0801f765    0x3a  Code  Gb  stm32f4xx_hal.o [1]
HAL_InitTick            0x0802c825    0x80  Code  Gb  stm32f4xx_hal_timebase_TIM.o [1]
HAL_MspInit             0x0802aed9    0x5e  Code  Gb  stm32f4xx_hal_msp.o [1]
HAL_NAND_Init           0x0802cc09    0x6a  Code  Gb  stm32f4xx_hal_nand.o [1]
HAL_NAND_MspInit        0x0802b499     0x8  Code  Gb  stm32f4xx_hal_msp.o [1]
HAL_NVIC_DisableIRQ     0x08020515     0xa  Code  Gb  stm32f4xx_hal_cortex.o [1]
HAL_NVIC_EnableIRQ      0x0802050b     0xa  Code  Gb  stm32f4xx_hal_cortex.o [1]
HAL_NVIC_SetPriority    0x080204e9    0x22  Code  Gb  stm32f4xx_hal_cortex.o [1]
HAL_NVIC_SetPriorityGrouping
                        0x080204e1     0x8  Code  Gb  stm32f4xx_hal_cortex.o [1]
HAL_PWREx_EnableBkUpReg
                        0x0801ccbd    0x2c  Code  Gb  stm32f4xx_hal_pwr_ex.o [1]
HAL_PWR_EnableBkUpAccess
                        0x0801c6d9     0x8  Code  Gb  stm32f4xx_hal_pwr.o [1]
HAL_RCCEx_PeriphCLKConfig
                        0x0801c571   0x144  Code  Gb  stm32f4xx_hal_rcc_ex.o [1]
HAL_RCC_CAN1_CLK_ENABLED
                        0x20013dc4     0x4  Data  Lc  stm32f4xx_hal_msp.o [1]
HAL_RCC_ClockConfig     0x0801c2e7   0x164  Code  Gb  stm32f4xx_hal_rcc.o [1]
HAL_RCC_GetClockConfig  0x0801c4f5    0x3a  Code  Gb  stm32f4xx_hal_rcc.o [1]
HAL_RCC_GetHCLKFreq     0x0801c4c3     0x6  Code  Gb  stm32f4xx_hal_rcc.o [1]
HAL_RCC_GetPCLK1Freq    0x0801c4c9    0x16  Code  Gb  stm32f4xx_hal_rcc.o [1]
HAL_RCC_GetPCLK2Freq    0x0801c4df    0x16  Code  Gb  stm32f4xx_hal_rcc.o [1]
HAL_RCC_GetSysClockFreq
                        0x0801c44b    0x78  Code  Wk  stm32f4xx_hal_rcc.o [1]
HAL_RCC_OscConfig       0x0801bf21   0x3c6  Code  Wk  stm32f4xx_hal_rcc.o [1]
HAL_RTCEx_BKUPRead      0x0801c855    0x10  Code  Gb  stm32f4xx_hal_rtc_ex.o [1]
HAL_RTCEx_BKUPWrite     0x0801c845    0x10  Code  Gb  stm32f4xx_hal_rtc_ex.o [1]
HAL_RTCEx_EnableBypassShadow
                        0x0801c865    0x3c  Code  Gb  stm32f4xx_hal_rtc_ex.o [1]
HAL_RTCEx_SetWakeUpTimer_IT
                        0x0801c6e5   0x116  Code  Gb  stm32f4xx_hal_rtc_ex.o [1]
HAL_RTCEx_WakeUpTimerEventCallback
                        0x0802a265    0x7e  Code  Gb  bsp_int.o [1]
HAL_RTCEx_WakeUpTimerIRQHandler
                        0x0801c7fb    0x38  Code  Gb  stm32f4xx_hal_rtc_ex.o [1]
HAL_RTC_GetDate         0x0801cbc7    0x4a  Code  Gb  stm32f4xx_hal_rtc.o [1]
HAL_RTC_GetTime         0x0801ca81    0x5e  Code  Gb  stm32f4xx_hal_rtc.o [1]
HAL_RTC_Init            0x0801c8a1    0xce  Code  Gb  stm32f4xx_hal_rtc.o [1]
HAL_RTC_MspInit         0x0802b161    0x26  Code  Gb  stm32f4xx_hal_msp.o [1]
HAL_RTC_SetDate         0x0801cadf    0xe8  Code  Gb  stm32f4xx_hal_rtc.o [1]
HAL_RTC_SetTime         0x0801c96f   0x112  Code  Gb  stm32f4xx_hal_rtc.o [1]
HAL_RTC_WaitForSynchro  0x0801cc1d    0x36  Code  Gb  stm32f4xx_hal_rtc.o [1]
HAL_SYSTICK_CLKSourceConfig
                        0x08020527    0x22  Code  Gb  stm32f4xx_hal_cortex.o [1]
HAL_SYSTICK_Config      0x0802051f     0x8  Code  Gb  stm32f4xx_hal_cortex.o [1]
HAL_TIMEx_BreakCallback
                        0x0802aed7     0x2  Code  Wk  stm32f4xx_hal_tim_ex.o [1]
HAL_TIMEx_CommutationCallback
                        0x0802aed5     0x2  Code  Wk  stm32f4xx_hal_tim_ex.o [1]
HAL_TIMEx_MasterConfigSynchronization
                        0x0802ae79    0x5c  Code  Gb  stm32f4xx_hal_tim_ex.o [1]
HAL_TIM_Base_Init       0x0802a515    0x38  Code  Gb  stm32f4xx_hal_tim.o [1]
HAL_TIM_Base_MspInit    0x0802b187    0x8c  Code  Gb  stm32f4xx_hal_msp.o [1]
HAL_TIM_Base_Start_IT   0x0802a54d    0x1c  Code  Gb  stm32f4xx_hal_tim.o [1]
HAL_TIM_ConfigClockSource
                        0x0802a8e7   0x11c  Code  Gb  stm32f4xx_hal_tim.o [1]
HAL_TIM_IC_CaptureCallback
                        0x0802aa51     0x2  Code  Wk  stm32f4xx_hal_tim.o [1]
HAL_TIM_IRQHandler      0x0802a671   0x176  Code  Gb  stm32f4xx_hal_tim.o [1]
HAL_TIM_MspPostInit     0x0802b213    0x3c  Code  Gb  stm32f4xx_hal_msp.o [1]
HAL_TIM_OC_DelayElapsedCallback
                        0x0802aa4f     0x2  Code  Wk  stm32f4xx_hal_tim.o [1]
HAL_TIM_PWM_ConfigChannel
                        0x0802a7e7   0x100  Code  Gb  stm32f4xx_hal_tim.o [1]
HAL_TIM_PWM_Init        0x0802a569    0x38  Code  Gb  stm32f4xx_hal_tim.o [1]
HAL_TIM_PWM_MspInit     0x0802a5a1     0x2  Code  Wk  stm32f4xx_hal_tim.o [1]
HAL_TIM_PWM_PulseFinishedCallback
                        0x0802aa53     0x2  Code  Wk  stm32f4xx_hal_tim.o [1]
HAL_TIM_PWM_Start       0x0802a5a3    0x48  Code  Gb  stm32f4xx_hal_tim.o [1]
HAL_TIM_PWM_Stop        0x0802a5eb    0x7e  Code  Gb  stm32f4xx_hal_tim.o [1]
HAL_TIM_PeriodElapsedCallback
                        0x0802a3ed    0x1e  Code  Gb  bsp_int.o [1]
HAL_TIM_SlaveConfigSynchronization
                        0x0802aa03    0x4c  Code  Gb  stm32f4xx_hal_tim.o [1]
HAL_TIM_TriggerCallback
                        0x0802aa55     0x2  Code  Wk  stm32f4xx_hal_tim.o [1]
HAL_UART_ErrorCallback  0x0802a3b1    0x3c  Code  Gb  bsp_int.o [1]
HAL_UART_IRQHandler     0x0802dda3   0x136  Code  Gb  stm32f4xx_hal_uart.o [1]
HAL_UART_Init           0x0802dbfd    0x78  Code  Gb  stm32f4xx_hal_uart.o [1]
HAL_UART_MspInit        0x0802b24f   0x1dc  Code  Gb  stm32f4xx_hal_msp.o [1]
HAL_UART_Receive_IT     0x0802dd51    0x52  Code  Gb  stm32f4xx_hal_uart.o [1]
HAL_UART_RxCpltCallback
                        0x0802a2e3    0xcc  Code  Gb  bsp_int.o [1]
HAL_UART_Transmit       0x0802dc75    0xdc  Code  Gb  stm32f4xx_hal_uart.o [1]
HAL_UART_TxCpltCallback
                        0x0802a3af     0x2  Code  Gb  bsp_int.o [1]
HCD_HC_IN_IRQHandler    0x0803b6af   0x504  Code  Lc  stm32f4xx_hal_hcd.o [1]
HCD_HC_OUT_IRQHandler   0x0803bbb3   0x4e2  Code  Lc  stm32f4xx_hal_hcd.o [1]
HCD_Port_IRQHandler     0x0803c175    0xd0  Code  Lc  stm32f4xx_hal_hcd.o [1]
HCD_RXQLVL_IRQHandler   0x0803c095    0xdc  Code  Lc  stm32f4xx_hal_hcd.o [1]
HEAP$$Base              0x20004208           --   Gb  - Linker created -
HEAP$$Limit             0x20006208           --   Gb  - Linker created -
HardFault_Handler       0x0803e107    0x18  Code  Gb  stm32f4xx_it.o [1]
HostSvr                 0x200133bc    0x40  Data  Gb  modem.o [1]
I2C1_ACC_Init           0x080287cb    0xe4  Code  Gb  i2c_gsensor.o [1]
I2C1_ACC_Read           0x080288af   0x2c4  Code  Gb  i2c_gsensor.o [1]
I2C1_Ackn               0x0802853d    0x5c  Code  Gb  i2c_gsensor.o [1]
I2C1_Clock              0x08028511    0x2c  Code  Gb  i2c_gsensor.o [1]
I2C1_Read               0x080286dd    0x8a  Code  Gb  i2c_gsensor.o [1]
I2C1_Set_Direction      0x20013ec9     0x1  Data  Gb  i2c_gsensor.o [1]
I2C1_Start              0x08028463    0x54  Code  Gb  i2c_gsensor.o [1]
I2C1_Stop               0x080284b7    0x5a  Code  Gb  i2c_gsensor.o [1]
I2C1_Write              0x08028767    0x64  Code  Gb  i2c_gsensor.o [1]
I2C1_ucNack_C           0x20013ec8     0x1  Data  Gb  i2c_gsensor.o [1]
I2C2_Ackn               0x080144b7    0x5a  Code  Gb  i2c_fram.o [1]
I2C2_Clock              0x0801448f    0x28  Code  Gb  i2c_fram.o [1]
I2C2_FRAM_Init          0x0801438d    0x2c  Code  Gb  i2c_fram.o [1]
I2C2_Read               0x08014993    0xb0  Code  Gb  i2c_fram.o [1]
I2C2_Start              0x080143f1    0x4c  Code  Gb  i2c_fram.o [1]
I2C2_Stop               0x0801443d    0x52  Code  Gb  i2c_fram.o [1]
I2C2_Write              0x08014a43    0x8c  Code  Gb  i2c_fram.o [1]
I2C2_ucNack_C           0x20013ec6     0x1  Data  Gb  i2c_fram.o [1]
I2C2_ucNack_C2          0x20013ec7     0x1  Data  Gb  i2c_fram.o [1]
I2C_FramSem             0x20013d34     0x4  Data  Gb  i2c_fram.o [1]
IP                      0x20013ce8     0x4  Data  Gb  extern.o [1]
IWDG_ReloadCounter      0x0801526f     0xe  Code  Gb  main.o [1]
InitParamFileName       0x08038ccd    0x6a  Code  Gb  usbuser.o [1]
IpToInt                 0x08020745    0x4e  Code  Gb  extern.o [1]
IsSameDay               0x08020601    0x1c  Code  Gb  extern.o [1]
IsSameString            0x08020683    0x20  Code  Gb  extern.o [1]
IsSameString2           0x080206a3    0x3a  Code  Gb  extern.o [1]
KS_Table                0x08036c50  0x125c  Data  Gb  i2c_lcd.o [1]
K_font                  0x08032cf4  0x2d00  Data  Gb  i2c_lcd.o [1]
KeyOKLongFlag           0x20013eb3     0x1  Data  Gb  gui.o [1]
KeyOffWaitTimeLimit     0x20013c9c     0x4  Data  Gb  dtg.o [1]
Key_Flag                0x20013ebb     0x1  Data  Gb  gui.o [1]
Key_MainMode            0x080101ab   0x1b0  Code  Gb  gui.o [1]
Key_MenuMode            0x08011209    0xcc  Code  Gb  gui.o [1]
Key_MenuMode_Cancel     0x08010f41    0x88  Code  Gb  gui.o [1]
Key_MenuMode_Left       0x08010fdd    0xf4  Code  Gb  gui.o [1]
Key_MenuMode_OK         0x08010e31    0xfc  Code  Gb  gui.o [1]
Key_MenuMode_Right      0x080110f5    0xfe  Code  Gb  gui.o [1]
Key_Off_Time            0x20013ca0     0x4  Data  Gb  dtg.o [1]
Key_Process             0x08013781    0x48  Code  Gb  gui.o [1]
Key_Scan                0x080136dd    0x92  Code  Gb  gui.o [1]
Key_SettingMode         0x080127c9    0xa8  Code  Gb  gui.o [1]
Key_SettingMode_Cancel  0x08012655    0x84  Code  Gb  gui.o [1]
Key_SettingMode_Left    0x080126dd    0x64  Code  Gb  gui.o [1]
Key_SettingMode_OK      0x08012225   0x428  Code  Gb  gui.o [1]
Key_SettingMode_Right   0x0801274d    0x6e  Code  Gb  gui.o [1]
Key_Val                 0x20013eba     0x1  Data  Gb  gui.o [1]
KtfState                0x20013e70     0x2  Data  Gb  modem.o [1]
LfnOfs                  0x0804045c    0x10  Data  Lc  ff.o [1]
LimitDelay              0x20013cf0     0x4  Data  Gb  extern.o [1]
LoadInt                 0x0802bb77    0x70  Code  Lc  xprintffull.o [3]
Long_Key_Cnt            0x20013ebd     0x1  Data  Gb  gui.o [1]
Long_Key_Flag           0x20013ebe     0x1  Data  Gb  gui.o [1]
LoopFotaFlag            0x20013edd     0x1  Data  Gb  modem.o [1]
LoopFotaStep            0x20013ede     0x1  Data  Gb  modem.o [1]
Loop_SendTimeCnt        0x20013da4     0x4  Data  Gb  modem_Loop.o [1]
MSC_Application         0x08038b9d     0x8  Code  Gb  usbuser.o [1]
MX_ADC1_Init            0x0801f7d9    0x9a  Code  Gb  adc.o [1]
MX_CAN1_Init            0x0801dafd   0x21e  Code  Gb  can.o [1]
MX_CAN1_Init::RxMessage1
                        0x20013888    0x24  Data  Lc  can.o [1]
MX_CAN1_Init::TxMessage1
                        0x20013a08    0x1c  Data  Lc  can.o [1]
MX_CAN2_Init            0x0801dd1b   0x206  Code  Gb  can.o [1]
MX_CAN2_Init::RxMessage2
                        0x200138ac    0x24  Data  Lc  can.o [1]
MX_CAN2_Init::TxMessage2
                        0x20013a24    0x1c  Data  Lc  can.o [1]
MX_DMA_Init             0x0801f873    0x22  Code  Gb  adc.o [1]
MX_FATFS_Init           0x0802e889    0x10  Code  Gb  fatfs.o [1]
MX_FSMC_Init            0x0801cdf1    0xc8  Code  Gb  fsmc_nand.o [1]
MX_GPIO_Init            0x08015655   0x22e  Code  Lc  main.o [1]
MX_IWDG_Init            0x08015629    0x2c  Code  Lc  main.o [1]
MX_NVIC_Init            0x08015535    0xf4  Code  Lc  main.o [1]
MX_RTC_Init             0x08014ec5    0xf2  Code  Gb  rtc.o [1]
MX_TIM4_Init            0x0801b735    0x9c  Code  Gb  timer.o [1]
MX_UART4_Init           0x0801f9d9    0x48  Code  Gb  uart.o [1]
MX_UART5_Init           0x0801fa21    0x48  Code  Gb  uart.o [1]
MX_USART1_UART_Init     0x0801f901    0x48  Code  Gb  uart.o [1]
MX_USART2_UART_Init     0x0801f949    0x48  Code  Gb  uart.o [1]
MX_USART3_UART_Init     0x0801f991    0x48  Code  Gb  uart.o [1]
MX_USART6_UART_Init     0x0801fa69    0x48  Code  Gb  uart.o [1]
MX_USB_HOST_Init        0x08039f35    0x1e  Code  Gb  usb_host.o [1]
MX_USB_HOST_Process     0x08039f53     0xa  Code  Gb  usb_host.o [1]
Main_Disp_Mode          0x20013eab     0x1  Data  Gb  gui.o [1]
Main_Display            0x080107cd   0x606  Code  Gb  gui.o [1]
MakePackMassage         0x0801f65b    0x3a  Code  Gb  can.o [1]
MaxSettingRightCnt      0x0803fb90    0x18  Data  Gb  gui.o [1]
MdmTmpString            0x20013014    0x64  Data  Gb  modem.o [1]
MemManage_Handler       0x0803e11f    0x18  Code  Gb  stm32f4xx_it.o [1]
MemoryDisplay           0x0801cf2d    0xc2  Code  Gb  fsmc_nand.o [1]
MenuTitle               0x0803ef04    0x50  Data  Gb  gui.o [1]
Menu_Disp_Mode          0x20013eb5     0x1  Data  Gb  gui.o [1]
Menu_Display            0x080113d1   0xa6e  Code  Gb  gui.o [1]
Menu_DisplayTitle       0x080112d5    0x24  Code  Gb  gui.o [1]
Model_Name              0x0804044c    0x10  Data  Gb  extern.o [1]
ModemBuff               0x2000a208  0x1800  Data  Gb  modem.o [1]
ModemCTN                0x20013bc4     0xc  Data  Gb  modem.o [1]
ModemCommBuf            0x2000ba08  0x110c  Data  Lc  modem.o [1]
ModemCommGetChar        0x080159a1    0x76  Code  Gb  modem.o [1]
ModemCommInit           0x08015983    0x1e  Code  Gb  modem.o [1]
ModemInfo               0x2001337c    0x40  Data  Gb  modem.o [1]
ModemInit               0x080183d5   0x2a6  Code  Gb  modem.o [1]
ModemInitCnt            0x20000206     0x1  Data  Gb  modem.o [1]
ModemOffFlag            0x20013ed3     0x1  Data  Gb  modem.o [1]
ModemPowerOnFlag        0x20000205     0x1  Data  Gb  modem.o [1]
ModemReadyFlag          0x20013ed4     0x1  Data  Gb  modem.o [1]
ModemServiceFault       0x20013eec     0x1  Data  Gb  modem.o [1]
ModemServiceFaultCnt    0x20013eeb     0x1  Data  Gb  modem.o [1]
ModemStep               0x20013ed7     0x1  Data  Gb  modem.o [1]
ModemTool_Process       0x080202b9    0x30  Code  Gb  modem_tool.o [1]
ModemVer                0x20013aa0    0x14  Data  Gb  modem.o [1]
ModemWaitCnt            0x20013d70     0x4  Data  Gb  modem.o [1]
Modem_CREG_Check        0x080161bd    0xd0  Code  Gb  modem.o [1]
Modem_CSQ_Check         0x08016291    0x9e  Code  Gb  modem.o [1]
Modem_CheckConnectIP    0x08017265    0x88  Code  Gb  modem.o [1]
Modem_CheckTelecom      0x08016939   0x110  Code  Gb  modem.o [1]
Modem_DataIdleProcess_Loop
                        0x08024845    0x22  Code  Gb  modem_Loop.o [1]
Modem_DataSvrProcess_Loop
                        0x0802433d   0x38e  Code  Gb  modem_Loop.o [1]
Modem_FotaFlag          0x20013ee4     0x1  Data  Gb  modem.o [1]
Modem_GetIP             0x08016f75   0x1b0  Code  Gb  modem.o [1]
Modem_Init_Loop         0x080247b1    0x12  Code  Gb  modem_Loop.o [1]
Modem_Initialize        0x08016ac9   0x48a  Code  Gb  modem.o [1]
Modem_KeyOffProcess     0x080186bd    0x22  Code  Gb  modem.o [1]
Modem_LoopFotaProcess   0x080246f5    0xb8  Code  Gb  modem_Loop.o [1]
Modem_PPPClose          0x08016541    0x9e  Code  Gb  modem.o [1]
Modem_PPPOpen           0x08016485    0xaa  Code  Gb  modem.o [1]
Modem_Parameter_Reset   0x08018265   0x144  Code  Gb  modem.o [1]
Modem_PowerOff          0x08016023    0x88  Code  Gb  modem.o [1]
Modem_PowerOn           0x080160ab    0x2c  Code  Gb  modem.o [1]
Modem_ResetProcess      0x080181b1    0xa0  Code  Gb  modem.o [1]
Modem_RxChar_Loop       0x08023373   0x40a  Code  Gb  modem_Loop.o [1]
Modem_RxDecode_Loop     0x08023855   0x81a  Code  Gb  modem_Loop.o [1]
Modem_RxDecode_Loop::crc_same_flag
                        0x20013ef5     0x1  Data  Lc  modem_Loop.o [1]
Modem_SMSSend           0x08021813    0xfe  Code  Gb  modem_sms.o [1]
Modem_SMS_Delete        0x0802195f    0x76  Code  Gb  modem_sms.o [1]
Modem_SMS_DeleteAll     0x08021911    0x4e  Code  Gb  modem_sms.o [1]
Modem_SMS_ReadAll       0x08021d75   0x304  Code  Gb  modem_sms.o [1]
Modem_SecIntProcess     0x080186f1    0x6a  Code  Gb  modem.o [1]
Modem_SecInt_Loop       0x080247d1    0x6c  Code  Gb  modem_Loop.o [1]
Modem_SendData_Loop     0x08024081   0x25c  Code  Gb  modem_Loop.o [1]
Modem_SocketClose       0x08017371    0xae  Code  Gb  modem.o [1]
Modem_SocketConnect     0x08017dfd   0x37e  Code  Gb  modem.o [1]
Modem_SocketOpenIP      0x0801712d   0x132  Code  Gb  modem.o [1]
Modem_SocketOpenSvrName
                        0x080172ed    0x7c  Code  Gb  modem.o [1]
Modem_State_Check       0x08016345   0x130  Code  Gb  modem.o [1]
Modem_TxData_Loop       0x0802377d    0xd2  Code  Gb  modem_Loop.o [1]
Modem_URC_Parser        0x0801793d   0x46c  Code  Gb  modem.o [1]
Modem_parse_proc        0x08017dd5    0x28  Code  Gb  modem.o [1]
MsgCommand              0x0801ba23    0x42  Code  Gb  cli.o [1]
MsgData                 0x20013e78     0x2  Data  Gb  modem_sms.o [1]
MsgIdx                  0x20013ef7     0x1  Data  Gb  modem_sms.o [1]
MtChangeAPNFlag         0x20013efe     0x1  Data  Gb  modem_tool.o [1]
MtCheckSum              0x20013f00     0x1  Data  Gb  modem_tool.o [1]
MtDecodeFlag            0x20013f01     0x1  Data  Gb  modem_tool.o [1]
MtErrCode               0x20013f03     0x1  Data  Gb  modem_tool.o [1]
MtErrFlag               0x20013f02     0x1  Data  Gb  modem_tool.o [1]
MtPacketLen             0x20013e7c     0x2  Data  Gb  modem_tool.o [1]
MtReadAPNFlag           0x20013efd     0x1  Data  Gb  modem_tool.o [1]
MtRxDecode              0x0801fe73   0x432  Code  Gb  modem_tool.o [1]
MtRxIdx                 0x20013e7a     0x2  Data  Gb  modem_tool.o [1]
MtRxPacketData          0x2001033c   0x400  Data  Lc  modem_tool.o [1]
MtRxProcess             0x0801fcb3   0x1c0  Code  Gb  modem_tool.o [1]
MtRxStep                0x20013eff     0x1  Data  Gb  modem_tool.o [1]
MtSendPacket            0x0801fc07    0xac  Code  Gb  modem_tool.o [1]
MtTxAPNFlag             0x20013efc     0x1  Data  Gb  modem_tool.o [1]
MtTxBuff                0x200125e8   0x100  Data  Gb  modem_tool.o [1]
NMI_Handler             0x0803e105     0x2  Code  Gb  stm32f4xx_it.o [1]
NOxValidFlag            0x20013e4a     0x2  Data  Gb  dtg.o [1]
NVIC_DisableIRQ         0x0802043f    0x14  Code  Lc  stm32f4xx_hal_cortex.o [1]
NVIC_EnableIRQ          0x0802042b    0x14  Code  Lc  stm32f4xx_hal_cortex.o [1]
NVIC_EncodePriority     0x08020475    0x3e  Code  Lc  stm32f4xx_hal_cortex.o [1]
NVIC_GetPriorityGrouping
                        0x08020421     0xa  Code  Lc  stm32f4xx_hal_cortex.o [1]
NVIC_SetPriority        0x08020453    0x22  Code  Lc  stm32f4xx_hal_cortex.o [1]
NVIC_SetPriorityGrouping
                        0x08020405    0x1c  Code  Lc  stm32f4xx_hal_cortex.o [1]
NVIC_SystemReset        0x08024931    0x22  Code  Lc  ble.o [1]
NVIC_SystemReset        0x08018b09    0x22  Code  Lc  dtg.o [1]
NVIC_SystemReset        0x08010189    0x22  Code  Lc  gui.o [1]
NVIC_SystemReset        0x0801524d    0x22  Code  Lc  main.o [1]
NVIC_SystemReset        0x08015961    0x22  Code  Lc  modem.o [1]
NVIC_SystemReset        0x08023351    0x22  Code  Lc  modem_Loop.o [1]
NVIC_SystemReset        0x080217f1    0x22  Code  Lc  modem_sms.o [1]
NVIC_SystemReset        0x0801fbe5    0x22  Code  Lc  modem_tool.o [1]
NVIC_SystemReset        0x0803e0e9    0x1c  Code  Lc  stm32f4xx_it.o [1]
NVIC_SystemReset        0x08037ead    0x20  Code  Lc  usbuser.o [1]
NandBufferingIdx        0x20013ef4     0x1  Data  Gb  modem_Loop.o [1]
NandDailyBuffer         0x2000ff3c   0x400  Data  Gb  fsmc_nand.o [1]
NandResp                0x20013e28     0x4  Data  Gb  usbuser.o [1]
NandTmpBuffer           0x2000db3c  0x1000  Data  Gb  fsmc_nand.o [1]
Nand_Addr               0x20013c68     0x4  Data  Gb  ble.o [1]
Nand_Bad_Check_Block_Num
                        0x20013e60     0x2  Data  Gb  fsmc_nand.o [1]
Nand_Block_Count        0x20013e5c     0x2  Data  Gb  fsmc_nand.o [1]
Nand_Block_Num          0x20013e5e     0x2  Data  Gb  fsmc_nand.o [1]
Nand_Block_Size         0x20013d00     0x4  Data  Gb  fsmc_nand.o [1]
Nand_Check_Badblock     0x0801d477    0x8e  Code  Gb  fsmc_nand.o [1]
Nand_Header_Flag        0x20013e96     0x1  Data  Gb  dtg.o [1]
Nand_Id                 0x20013bac     0xc  Data  Gb  fsmc_nand.o [1]
Nand_Read_BadblockData  0x0801d2a5   0x1d2  Code  Gb  fsmc_nand.o [1]
Nand_Read_Buffer        0x0801d5d7    0x40  Code  Gb  fsmc_nand.o [1]
Nand_Read_DailyData     0x0801d909    0x80  Code  Gb  fsmc_nand.o [1]
Nand_Read_DailySetting  0x0801d991    0x80  Code  Gb  fsmc_nand.o [1]
Nand_Read_SecData       0x0801d7b5    0x44  Code  Gb  fsmc_nand.o [1]
Nand_Rx_Index           0x20013c64     0x4  Data  Gb  ble.o [1]
Nand_Save_Buff          0x20013cfc     0x4  Data  Gb  fsmc_nand.o [1]
Nand_Status             0x20013eaa     0x1  Data  Gb  fsmc_nand.o [1]
Nand_Write_Buffer       0x0801d505    0xd2  Code  Gb  fsmc_nand.o [1]
Nand_Write_DailyData    0x0801da11    0x58  Code  Gb  fsmc_nand.o [1]
Nand_Write_SaveData     0x0801d805    0xf4  Code  Gb  fsmc_nand.o [1]
NetRespFlag             0x20013ee6     0x1  Data  Gb  modem.o [1]
NetRespNo               0x20013d90     0x4  Data  Gb  modem.o [1]
OTG_FS_IRQHandler       0x0803e2b1     0xa  Code  Gb  stm32f4xx_it.o [1]
Old_Key                 0x20013ebc     0x1  Data  Gb  gui.o [1]
PCB_HW_Ver              0x08040850     0xc  Data  Gb  extern.o [1]
P_BUF                   0x20013a58    0x18  Data  Gb  dtg.o [1]
ParamFileName           0x20013b54    0x14  Data  Gb  usbuser.o [1]
Parameter_Init          0x08018fc9   0xa16  Code  Gb  dtg.o [1]
Parameter_Reset         0x08018b3d   0x42a  Code  Gb  dtg.o [1]
Parameter_Save          0x08019b19    0x42  Code  Gb  dtg.o [1]
Pedal_ADC               0x20013bf0     0x8  Data  Gb  dtg.o [1]
PendSV_Handler          0x0802ed9d          Code  Gb  portasm.o [1]
Power_Mode              0x0801aae9    0x62  Code  Gb  dtg.o [1]
Power_Off               0x0801aa63    0x78  Code  Gb  dtg.o [1]
Power_Off_Flag          0x20013e99     0x1  Data  Gb  dtg.o [1]
Power_Off_Mode          0x20013e9b     0x1  Data  Gb  dtg.o [1]
PppState                0x20013ee8     0x1  Data  Gb  modem.o [1]
PreDay                  0x20013ea4     0x1  Data  Gb  dtg.o [1]
Pre_CanEnableCnt        0x200139ec    0x1c  Data  Gb  can.o [1]
PrevLat                 0x20013cc4     0x4  Data  Gb  dtg.o [1]
PrevLon                 0x20013cc8     0x4  Data  Gb  dtg.o [1]
PrevSecData             0x200132fc    0x40  Data  Gb  dtg.o [1]
PrevSecTime             0x20013ccc     0x4  Data  Gb  dtg.o [1]
PrevUreaAlarm           0x20013ca8     0x4  Data  Gb  dtg.o [1]
Prev_Backligth_Sel      0x20013ebf     0x1  Data  Gb  gui.o [1]
Prev_COM_Command_Char   0x20013ec2     0x1  Data  Gb  gui.o [1]
Prev_GPS_Valid_Char     0x20013ec0     0x1  Data  Gb  gui.o [1]
Prev_USB_Detect_Flag    0x20013ec1     0x1  Data  Gb  gui.o [1]
Prev_rmctime            0x20013cd8     0x4  Data  Gb  dtg.o [1]
PrintkSem               0x20013c7c     0x4  Data  Gb  cli.o [1]
Pro_Step                0x20013e90     0x1  Data  Gb  ble.o [1]
ProgressFotaRxByte      0x20013d7c     0x4  Data  Gb  modem.o [1]
PromptSem               0x20013c78     0x4  Data  Gb  cli.o [1]
RD_Sec_Data             0x2001343c    0x40  Data  Gb  modem.o [1]
RSSI                    0x20013eed     0x1  Data  Gb  modem.o [1]
RTCValTotime            0x08014fc7    0x3a  Code  Gb  rtc.o [1]
RTC_BKRam_Init          0x08014fb7    0x10  Code  Gb  rtc.o [1]
RTC_BK_Addr             0x20013c8c     0x4  Data  Gb  dtg.o [1]
RTC_Bcd2ToByte          0x0801cca1    0x1a  Code  Gb  stm32f4xx_hal_rtc.o [1]
RTC_ByteToBcd2          0x0801cc8b    0x16  Code  Gb  stm32f4xx_hal_rtc.o [1]
RTC_Config              0x08014e7d    0x48  Code  Gb  rtc.o [1]
RTC_EnterInitMode       0x0801cc53    0x38  Code  Gb  stm32f4xx_hal_rtc.o [1]
RTC_GPS_Val             0x20013cd4     0x4  Data  Gb  dtg.o [1]
RTC_GetDateTime         0x08015069    0x5a  Code  Gb  rtc.o [1]
RTC_LVal                0x20013db4     0x4  Data  Gb  rtc.o [1]
RTC_SetDateTime         0x08015001    0x68  Code  Gb  rtc.o [1]
RTC_Val                 0x20013c38     0x8  Data  Gb  rtc.o [1]
RTC_WKUP_IRQHandler     0x0803e2bb     0xa  Code  Gb  stm32f4xx_it.o [1]
RTC_WriteBackupRegister
                        0x08015205     0xe  Code  Gb  rtc.o [1]
RcvNum                  0x20013ab4    0x14  Data  Gb  modem_sms.o [1]
ReadArray_i2c           0x08014977    0x10  Code  Gb  i2c_fram.o [1]
Read_I2C1_Byte          0x0802862f    0xae  Code  Gb  i2c_gsensor.o [1]
Read_I2C2_Byte          0x0801459d    0xa8  Code  Gb  i2c_fram.o [1]
Read_SettingMode        0x08011e6d   0x390  Code  Gb  gui.o [1]
RefreshBadblockTable    0x20013ea9     0x1  Data  Gb  fsmc_nand.o [1]
Region$$Table$$Base     0x0803f590           --   Gb  - Linker created -
Region$$Table$$Limit    0x0803f5b8           --   Gb  - Linker created -
RespMsg                 0x2001319c    0x50  Data  Gb  modem_sms.o [1]
RxBinData               0x20013ef1     0x1  Data  Gb  modem.o [1]
RxHexStr                0x20013bd0     0xc  Data  Gb  modem.o [1]
RxHexStrCnt             0x20013e74     0x2  Data  Gb  modem.o [1]
RxHexStrData            0x08017691   0x24e  Code  Gb  modem.o [1]
RxHexStrLen             0x20013e76     0x2  Data  Gb  modem.o [1]
RxHexStrStep            0x20013ef0     0x1  Data  Gb  modem.o [1]
RxSmsCnt                0x20013ef9     0x1  Data  Gb  modem_sms.o [1]
RxUART4                 0x20013f17     0x1  Data  Gb  uart.o [1]
RxUSART1                0x20013f14     0x1  Data  Gb  uart.o [1]
RxUSART2                0x20013f15     0x1  Data  Gb  uart.o [1]
RxUSART3                0x20013f16     0x1  Data  Gb  uart.o [1]
RxUSART5                0x20013f18     0x1  Data  Gb  uart.o [1]
RxUSART6                0x20013f19     0x1  Data  Gb  uart.o [1]
SDA1_PortSet            0x08028429    0x3a  Code  Gb  i2c_gsensor.o [1]
SDA2_PortSet            0x080143b9    0x38  Code  Gb  i2c_fram.o [1]
SMSData                 0x20012c58    0x8c  Data  Gb  modem.o [1]
SMSDecodeWaitCnt        0x20013d88     0x4  Data  Gb  modem.o [1]
SMS_No                  0x20013da8     0x4  Data  Gb  modem_sms.o [1]
SMS_No_Flag             0x20013ef8     0x1  Data  Gb  modem_sms.o [1]
SMS_Process             0x080219d9   0x39c  Code  Gb  modem_sms.o [1]
SPI_Flash_Init          0x080203d9    0x20  Code  Gb  spi_flash.o [1]
SVC_Handler             0x0802edf5          Code  Gb  portasm.o [1]
SaveOkFlag              0x20013ea3     0x1  Data  Gb  dtg.o [1]
Save_SecData_Buff       0x10000000  0x4b00  Data  Gb  dtg.o [1]
Save_SecData_Cnt        0x20013e48     0x2  Data  Gb  dtg.o [1]
Save_SecData_Flag       0x20013e9c     0x1  Data  Gb  dtg.o [1]
Sbuf                    0x20011f50   0x140  Data  Gb  ble.o [1]
SecCnt                  0x20013d98     0x4  Data  Gb  modem.o [1]
SecData                 0x200132bc    0x40  Data  Gb  dtg.o [1]
SendCanMassage          0x0801f611    0x4a  Code  Gb  can.o [1]
SendCountPerConnect     0x20013d9c     0x4  Data  Gb  modem_Loop.o [1]
SendDailyDataFlag       0x20013ee2     0x1  Data  Gb  modem.o [1]
SendData_EndTime        0x20013d84     0x4  Data  Gb  modem.o [1]
SendData_StartTime      0x20013d80     0x4  Data  Gb  modem.o [1]
SendSetting             0x200128d8    0xe0  Data  Gb  ble.o [1]
SendSettingFlag         0x20013ee1     0x1  Data  Gb  modem.o [1]
Send_LimitStep          0x0801f695    0x50  Code  Gb  can.o [1]
Send_SecData            0x08029275    0x18  Code  Gb  test_jig.o [1]
ServerIPCheckFlag       0x20013edc     0x1  Data  Gb  modem.o [1]
Setting                 0x200129b8    0xe0  Data  Gb  dtg.o [1]
SettingTitle            0x0803e87c    0xa0  Data  Gb  gui.o [1]
Setting_Disp_Mode       0x20013eb6     0x1  Data  Gb  gui.o [1]
Setting_Display         0x08012949   0xd60  Code  Gb  gui.o [1]
Setting_DisplayTitle    0x080128a5    0x22  Code  Gb  gui.o [1]
Sig                     0x20013cc0     0x4  Data  Gb  dtg.o [1]
Signal_Process          0x0801aa61     0x2  Code  Gb  dtg.o [1]
SmsState                0x20013eea     0x1  Data  Gb  modem.o [1]
SocketConnectStep       0x20013ed9     0x1  Data  Gb  modem.o [1]
SocketRetryCnt          0x20013eda     0x1  Data  Gb  modem.o [1]
SocketWaitCnt           0x20013d74     0x4  Data  Gb  modem.o [1]
SpiFlashDevSem          0x20013dbc     0x4  Data  Gb  spi_flash.o [1]
StartDefaultTask        0x08015883    0x16  Code  Gb  main.o [1]
Start_Flag              0x20013e9a     0x1  Data  Gb  dtg.o [1]
StringLen               0x0802066b    0x18  Code  Gb  extern.o [1]
SvrEventCode            0x20013ed1     0x1  Data  Gb  modem.o [1]
SvrEventFlag            0x20013ed0     0x1  Data  Gb  modem.o [1]
SvrSvcError             0x20013ed2     0x1  Data  Gb  modem.o [1]
SysTick_Config          0x080204b3    0x2e  Code  Lc  stm32f4xx_hal_cortex.o [1]
SysTick_Handler         0x0803e169    0x1c  Code  Gb  stm32f4xx_it.o [1]
SystemClock_Config      0x08015435   0x100  Code  Gb  main.o [1]
SystemCoreClock         0x20000004     0x4  Data  Gb  system_stm32f4xx.o [1]
SystemInit              0x0803ea8d    0x4a  Code  Gb  system_stm32f4xx.o [1]
System_PowerOff         0x08018b2b    0x12  Code  Gb  dtg.o [1]
TCP_Open                0x20013ed5     0x1  Data  Gb  modem.o [1]
TIM1_UP_TIM10_IRQHandler
                        0x0803e1ad     0xa  Code  Gb  stm32f4xx_it.o [1]
TIM2_IRQHandler         0x0803e1b7     0xa  Code  Gb  stm32f4xx_it.o [1]
TIM3_IRQHandler         0x0803e1c1     0xa  Code  Gb  stm32f4xx_it.o [1]
TIM_Base_SetConfig      0x0802aa57    0xe6  Code  Gb  stm32f4xx_hal_tim.o [1]
TIM_CCxChannelCmd       0x0802abbd    0x1e  Code  Gb  stm32f4xx_hal_tim.o [1]
TIM_ETR_SetConfig       0x0802ae5f    0x18  Code  Lc  stm32f4xx_hal_tim.o [1]
TIM_ITRx_SetConfig      0x0802ae49    0x16  Code  Lc  stm32f4xx_hal_tim.o [1]
TIM_OC1_SetConfig       0x0802abdd    0x74  Code  Lc  stm32f4xx_hal_tim.o [1]
TIM_OC2_SetConfig       0x0802ab3d    0x7e  Code  Gb  stm32f4xx_hal_tim.o [1]
TIM_OC3_SetConfig       0x0802ac51    0x76  Code  Lc  stm32f4xx_hal_tim.o [1]
TIM_OC4_SetConfig       0x0802acc7    0x5e  Code  Lc  stm32f4xx_hal_tim.o [1]
TIM_SlaveTimer_SetConfig
                        0x0802ad51    0x9e  Code  Lc  stm32f4xx_hal_tim.o [1]
TIM_TI1_ConfigInputStage
                        0x0802adef    0x2c  Code  Lc  stm32f4xx_hal_tim.o [1]
TIM_TI2_ConfigInputStage
                        0x0802ae1b    0x2e  Code  Lc  stm32f4xx_hal_tim.o [1]
TJ_ChkSum               0x20013f11     0x1  Data  Gb  test_jig.o [1]
TJ_ComBuf               0x2000eb3c  0x1000  Data  Gb  test_jig.o [1]
TJ_Decode_Flag          0x20013f12     0x1  Data  Gb  test_jig.o [1]
TJ_LenType              0x20013f10     0x1  Data  Gb  test_jig.o [1]
TJ_RxCommand            0x20013f0d     0x1  Data  Gb  test_jig.o [1]
TJ_RxDataCnt            0x20013e84     0x2  Data  Gb  test_jig.o [1]
TJ_RxLength             0x20013e82     0x2  Data  Gb  test_jig.o [1]
TJ_RxStep               0x20013f0e     0x1  Data  Gb  test_jig.o [1]
TJ_SyncCnt              0x20013f0f     0x1  Data  Gb  test_jig.o [1]
TMR_DDD                 0x20013e46     0x2  Data  Gb  cli.o [1]
Task_BLE                0x08025b61    0xc8  Code  Gb  ble.o [1]
Task_CAN                0x0801f6e5    0x34  Code  Gb  can.o [1]
Task_CLI                0x0801be53    0x46  Code  Gb  cli.o [1]
Task_COM                0x0801fb83    0x10  Code  Gb  uart.o [1]
Task_DTG                0x0801af69   0x10c  Code  Gb  dtg.o [1]
Task_GPS                0x0803d4a5   0x124  Code  Gb  nmeap.o [1]
Task_GUI                0x08013899    0x68  Code  Gb  gui.o [1]
Task_MOD                0x08018781   0x2bc  Code  Gb  modem.o [1]
Task_USB                0x08038e69   0x162  Code  Gb  usbuser.o [1]
TcpState                0x20013ed6     0x1  Data  Gb  modem.o [1]
TellRespDecode          0x08017441   0x212  Code  Gb  modem.o [1]
TellRespFlag            0x20013ee5     0x1  Data  Gb  modem.o [1]
TellRespNo              0x20013d8c     0x4  Data  Gb  modem.o [1]
Term_Erase_Line         0x0803181b    0x1c  Code  Gb  debug.o [1]
Term_Restore_Cursor_Position
                        0x08031837    0x16  Code  Gb  debug.o [1]
Term_Save_Cursor_Position
                        0x080317ab    0x16  Code  Gb  debug.o [1]
Term_Send               0x080317a1     0xa  Code  Gb  debug.o [1]
Term_Send_Value_as_Digits
                        0x0803215d    0x38  Code  Gb  debug.o [1]
Term_Set_Cursor_Position
                        0x080317c1    0x30  Code  Gb  debug.o [1]
Term_Set_Display_Attribute_Mode
                        0x0802c6cd    0x20  Code  Gb  debug.o [1]
Term_Set_Display_Colour
                        0x080317f1    0x2a  Code  Gb  debug.o [1]
Test                    0x20013c40     0x8  Data  Gb  test_jig.o [1]
TestJIgTxData           0x08028bb9    0xe0  Code  Gb  test_jig.o [1]
TestJigComm             0x20013e08     0x4  Data  Gb  test_jig.o [1]
TldState                0x20013ee9     0x1  Data  Gb  modem.o [1]
TmpBuff                 0x200126e8   0x100  Data  Gb  usbuser.o [1]
TmpDailyData            0x20012de4    0x80  Data  Gb  usbuser.o [1]
TmpDailySetting         0x20012a98    0xe0  Data  Gb  usbuser.o [1]
TmpSecData              0x2001363c    0x40  Data  Gb  usbuser.o [1]
Tmp_Buff                0x2001367c    0x3c  Data  Gb  gui.o [1]
TripStartTime           0x20013c98     0x4  Data  Gb  dtg.o [1]
TxCharToModem           0x08015a97    0x28  Code  Gb  modem.o [1]
TxCommand               0x20013da0     0x4  Data  Gb  modem_Loop.o [1]
TxDataStrToModem        0x08015a4d    0x4a  Code  Gb  modem.o [1]
TxHexStrToModem         0x08015abf   0x218  Code  Gb  modem.o [1]
TxMsgLen                0x20013d94     0x4  Data  Gb  modem.o [1]
TxResp                  0x20013eee     0x1  Data  Gb  modem.o [1]
TxRespStep              0x20013eef     0x1  Data  Gb  modem.o [1]
TxSmsResp               0x20013bdc     0xc  Data  Gb  modem_sms.o [1]
TxStrToModem            0x08015a17    0x36  Code  Gb  modem.o [1]
UART4_IRQHandler        0x0803e247    0x32  Code  Gb  stm32f4xx_it.o [1]
UART5_IRQHandler        0x0803e279    0x18  Code  Gb  stm32f4xx_it.o [1]
UART_DMAAbortOnError    0x0802df51    0x12  Code  Lc  stm32f4xx_hal_uart.o [1]
UART_EndRxTransfer      0x0802df31    0x20  Code  Lc  stm32f4xx_hal_uart.o [1]
UART_EndTransmit_IT     0x0802dfd1    0x1e  Code  Lc  stm32f4xx_hal_uart.o [1]
UART_Receive_IT         0x0802dfef    0x9c  Code  Lc  stm32f4xx_hal_uart.o [1]
UART_SendData           0x0801fb39    0x26  Code  Gb  uart.o [1]
UART_SendDataStr        0x0801fb5f    0x24  Code  Gb  uart.o [1]
UART_SetConfig          0x0802e08b   0x30c  Code  Lc  stm32f4xx_hal_uart.o [1]
UART_Transmit_IT        0x0802df65    0x6c  Code  Lc  stm32f4xx_hal_uart.o [1]
UART_WaitOnFlagUntilTimeout
                        0x0802ded9    0x58  Code  Lc  stm32f4xx_hal_uart.o [1]
USART1_IRQHandler       0x0803e1cb    0x32  Code  Gb  stm32f4xx_it.o [1]
USART2_IRQHandler       0x0803e1fd    0x18  Code  Gb  stm32f4xx_it.o [1]
USART3_IRQHandler       0x0803e215    0x32  Code  Gb  stm32f4xx_it.o [1]
USART6_IRQHandler       0x0803e291    0x20  Code  Gb  stm32f4xx_it.o [1]
USBHFatFS               0x200110f4   0x234  Data  Gb  fatfs.o [1]
USBHFile                0x20011550   0x228  Data  Gb  fatfs.o [1]
USBHPath                0x20013cf4     0x4  Data  Gb  fatfs.o [1]
USBH_AllocPipe          0x08039fc5    0x2a  Code  Gb  usbh_pipes.o [1]
USBH_BulkReceiveData    0x0803b131    0x24  Code  Gb  usbh_ioreq.o [1]
USBH_BulkSendData       0x0803b0ff    0x32  Code  Gb  usbh_ioreq.o [1]
USBH_ClosePipe          0x08039fb9     0xc  Code  Gb  usbh_pipes.o [1]
USBH_ClrFeature         0x0803a895    0x26  Code  Gb  usbh_ctlreq.o [1]
USBH_CtlReceiveData     0x0803b0db    0x24  Code  Gb  usbh_ioreq.o [1]
USBH_CtlReq             0x0803aa79    0x4c  Code  Gb  usbh_ctlreq.o [1]
USBH_CtlSendData        0x0803b0a9    0x32  Code  Gb  usbh_ioreq.o [1]
USBH_CtlSendSetup       0x0803b085    0x24  Code  Gb  usbh_ioreq.o [1]
USBH_Delay              0x0803a739     0x8  Code  Gb  usbh_conf.o [1]
USBH_Driver             0x08040368    0x14  Data  Gb  usbh_diskio.o [1]
USBH_FindInterface      0x08039a61    0x5c  Code  Gb  usbh_core.o [1]
USBH_FreePipe           0x08039fef    0x22  Code  Gb  usbh_pipes.o [1]
USBH_GetDescriptor      0x0803a80f    0x3c  Code  Gb  usbh_ctlreq.o [1]
USBH_GetFreePipe        0x0803a011    0x2a  Code  Lc  usbh_pipes.o [1]
USBH_GetNextDesc        0x0803aa69    0x10  Code  Gb  usbh_ctlreq.o [1]
USBH_Get_CfgDesc        0x0803a78d    0x3c  Code  Gb  usbh_ctlreq.o [1]
USBH_Get_DevDesc        0x0803a741    0x4c  Code  Gb  usbh_ctlreq.o [1]
USBH_Get_StringDesc     0x0803a7c9    0x46  Code  Gb  usbh_ctlreq.o [1]
USBH_HandleControl      0x0803aac5   0x1f2  Code  Lc  usbh_ctlreq.o [1]
USBH_HandleEnum         0x08039cff   0x194  Code  Lc  usbh_core.o [1]
USBH_HandleSof          0x08039eab    0x1a  Code  Lc  usbh_core.o [1]
USBH_Init               0x08039981    0x38  Code  Gb  usbh_core.o [1]
USBH_LL_ClosePipe       0x0803a623    0x3a  Code  Gb  usbh_conf.o [1]
USBH_LL_Connect         0x08039ec5    0x2e  Code  Gb  usbh_core.o [1]
USBH_LL_Disconnect      0x08039ef3    0x40  Code  Gb  usbh_core.o [1]
USBH_LL_DriverVBUS      0x0803a6bb    0x12  Code  Gb  usbh_conf.o [1]
USBH_LL_GetLastXferSize
                        0x0803a5c5     0xe  Code  Gb  usbh_conf.o [1]
USBH_LL_GetSpeed        0x0803a561    0x2c  Code  Gb  usbh_conf.o [1]
USBH_LL_GetToggle       0x0803a701    0x38  Code  Gb  usbh_conf.o [1]
USBH_LL_GetURBState     0x0803a6ad     0xe  Code  Gb  usbh_conf.o [1]
USBH_LL_IncTimer        0x08039e99    0x12  Code  Gb  usbh_core.o [1]
USBH_LL_Init            0x0803a479    0x62  Code  Gb  usbh_conf.o [1]
USBH_LL_OpenPipe        0x0803a5d3    0x50  Code  Gb  usbh_conf.o [1]
USBH_LL_ResetPort       0x0803a58d    0x38  Code  Gb  usbh_conf.o [1]
USBH_LL_SetTimer        0x08039e93     0x6  Code  Gb  usbh_core.o [1]
USBH_LL_SetToggle       0x0803a6cd    0x34  Code  Gb  usbh_conf.o [1]
USBH_LL_Start           0x0803a4f1    0x38  Code  Gb  usbh_conf.o [1]
USBH_LL_Stop            0x0803a529    0x38  Code  Gb  usbh_conf.o [1]
USBH_LL_SubmitURB       0x0803a65d    0x50  Code  Gb  usbh_conf.o [1]
USBH_MSC_BOT_Abort      0x0803a32b    0x30  Code  Lc  usbh_msc_bot.o [1]
USBH_MSC_BOT_Init       0x0803a07b    0x1e  Code  Gb  usbh_msc_bot.o [1]
USBH_MSC_BOT_Process    0x0803a099   0x292  Code  Gb  usbh_msc_bot.o [1]
USBH_MSC_BOT_REQ_GetMaxLUN
                        0x0803a05d    0x1e  Code  Gb  usbh_msc_bot.o [1]
USBH_MSC_BOT_REQ_Reset  0x0803a03d    0x20  Code  Gb  usbh_msc_bot.o [1]
USBH_MSC_ClassRequest   0x08039285    0x80  Code  Lc  usbh_msc.o [1]
USBH_MSC_DecodeCSW      0x0803a35b    0x54  Code  Lc  usbh_msc_bot.o [1]
USBH_MSC_GetLUNInfo     0x0803981b    0x2e  Code  Gb  usbh_msc.o [1]
USBH_MSC_InterfaceDeInit
                        0x08039227    0x5e  Code  Lc  usbh_msc.o [1]
USBH_MSC_InterfaceInit  0x080390a9   0x17e  Code  Lc  usbh_msc.o [1]
USBH_MSC_IsReady        0x080397cf    0x20  Code  Gb  usbh_msc.o [1]
USBH_MSC_Process        0x08039305   0x376  Code  Lc  usbh_msc.o [1]
USBH_MSC_RdWrProcess    0x0803967f   0x150  Code  Lc  usbh_msc.o [1]
USBH_MSC_Read           0x08039849    0x9c  Code  Gb  usbh_msc.o [1]
USBH_MSC_SCSI_Inquiry   0x0803adb7    0xf4  Code  Gb  usbh_msc_scsi.o [1]
USBH_MSC_SCSI_Read      0x0803afed    0x98  Code  Gb  usbh_msc_scsi.o [1]
USBH_MSC_SCSI_ReadCapacity
                        0x0803ad13    0xa4  Code  Gb  usbh_msc_scsi.o [1]
USBH_MSC_SCSI_RequestSense
                        0x0803aeab    0xaa  Code  Gb  usbh_msc_scsi.o [1]
USBH_MSC_SCSI_TestUnitReady
                        0x0803acb7    0x5c  Code  Gb  usbh_msc_scsi.o [1]
USBH_MSC_SCSI_Write     0x0803af55    0x98  Code  Gb  usbh_msc_scsi.o [1]
USBH_MSC_SOFProcess     0x0803967b     0x4  Code  Lc  usbh_msc.o [1]
USBH_MSC_UnitIsReady    0x080397ef    0x2c  Code  Gb  usbh_msc.o [1]
USBH_MSC_Write          0x080398e5    0x9c  Code  Gb  usbh_msc.o [1]
USBH_OpenPipe           0x08039f99    0x20  Code  Gb  usbh_pipes.o [1]
USBH_ParseCfgDesc       0x0803a917    0xd0  Code  Lc  usbh_ctlreq.o [1]
USBH_ParseDevDesc       0x0803a8bb    0x5c  Code  Lc  usbh_ctlreq.o [1]
USBH_ParseEPDesc        0x0803aa0d    0x20  Code  Lc  usbh_ctlreq.o [1]
USBH_ParseInterfaceDesc
                        0x0803a9e7    0x26  Code  Lc  usbh_ctlreq.o [1]
USBH_ParseStringDesc    0x0803aa2d    0x3c  Code  Lc  usbh_ctlreq.o [1]
USBH_Process            0x08039b19   0x1e6  Code  Gb  usbh_core.o [1]
USBH_ReEnumerate        0x08039af9    0x20  Code  Gb  usbh_core.o [1]
USBH_RegisterClass      0x08039a11    0x30  Code  Gb  usbh_core.o [1]
USBH_SelectInterface    0x08039a41    0x20  Code  Gb  usbh_core.o [1]
USBH_SetAddress         0x0803a84b    0x26  Code  Gb  usbh_ctlreq.o [1]
USBH_SetCfg             0x0803a871    0x24  Code  Gb  usbh_ctlreq.o [1]
USBH_Start              0x08039abd    0x16  Code  Gb  usbh_core.o [1]
USBH_Stop               0x08039ad3    0x26  Code  Gb  usbh_core.o [1]
USBH_UserProcess        0x08039f5d    0x30  Code  Lc  usb_host.o [1]
USBH_initialize         0x0803e741     0x4  Code  Gb  usbh_diskio.o [1]
USBH_ioctl              0x0803e7f7    0x80  Code  Gb  usbh_diskio.o [1]
USBH_msc                0x20000008    0x20  Data  Gb  usbh_msc.o [1]
USBH_read               0x0803e761    0x46  Code  Gb  usbh_diskio.o [1]
USBH_status             0x0803e745    0x1c  Code  Gb  usbh_diskio.o [1]
USBH_write              0x0803e7a7    0x50  Code  Gb  usbh_diskio.o [1]
USB_Cancel_Flag         0x20013f27     0x1  Data  Gb  usbuser.o [1]
USB_CoreInit            0x0803c245    0x6e  Code  Gb  stm32f4xx_ll_usb.o [1]
USB_CoreReset           0x0803c3af    0x34  Code  Lc  stm32f4xx_ll_usb.o [1]
USB_DataDL_Complete     0x20013f1c     0x1  Data  Gb  usbuser.o [1]
USB_DataDL_Flag         0x20013f1b     0x1  Data  Gb  usbuser.o [1]
USB_DataDL_LastTrip     0x20013f1d     0x1  Data  Gb  usbuser.o [1]
USB_Detect_Flag         0x20013f22     0x1  Data  Gb  usbuser.o [1]
USB_DisableGlobalInt    0x0803c2bf     0xc  Code  Gb  stm32f4xx_ll_usb.o [1]
USB_DoPing              0x0803ca5d    0x3c  Code  Gb  stm32f4xx_ll_usb.o [1]
USB_Download            0x08038ba5    0xb2  Code  Gb  usbuser.o [1]
USB_Download_Flag       0x20013f23     0x1  Data  Gb  usbuser.o [1]
USB_DriveVbus           0x0803c55d    0x4a  Code  Gb  stm32f4xx_ll_usb.o [1]
USB_EnableGlobalInt     0x0803c2b3     0xc  Code  Gb  stm32f4xx_ll_usb.o [1]
USB_Error_Flag          0x20013f26     0x1  Data  Gb  usbuser.o [1]
USB_FirmwareUpdate      0x08037f19   0x246  Code  Gb  usbuser.o [1]
USB_FirmwareUpdate_Complete
                        0x20013f1f     0x1  Data  Gb  usbuser.o [1]
USB_FirmwareUpdate_Flag
                        0x20013f1e     0x1  Data  Gb  usbuser.o [1]
USB_FlushRxFifo         0x0803c31f    0x1e  Code  Gb  stm32f4xx_ll_usb.o [1]
USB_FlushTxFifo         0x0803c2fd    0x22  Code  Gb  stm32f4xx_ll_usb.o [1]
USB_GetCurrentFrame     0x0803c5bb     0xa  Code  Gb  stm32f4xx_ll_usb.o [1]
USB_GetHostSpeed        0x0803c5a7    0x14  Code  Gb  stm32f4xx_ll_usb.o [1]
USB_GetMode             0x0803c3a7     0x8  Code  Gb  stm32f4xx_ll_usb.o [1]
USB_HC_Halt             0x0803c903   0x15a  Code  Gb  stm32f4xx_ll_usb.o [1]
USB_HC_Init             0x0803c5c5   0x170  Code  Gb  stm32f4xx_ll_usb.o [1]
USB_HC_ReadInterrupt    0x0803c8f9     0xa  Code  Gb  stm32f4xx_ll_usb.o [1]
USB_HC_StartXfer        0x0803c735   0x1ac  Code  Gb  stm32f4xx_ll_usb.o [1]
USB_HostInit            0x0803c3e3    0xf0  Code  Gb  stm32f4xx_ll_usb.o [1]
USB_InitFSLSPClkSel     0x0803c4d9    0x4a  Code  Gb  stm32f4xx_ll_usb.o [1]
USB_IntFlag             0x20013ea2     0x1  Data  Gb  dtg.o [1]
USB_JigCompare_Flag     0x20013f21     0x1  Data  Gb  usbuser.o [1]
USB_JigTestCompare      0x08038dc5    0x78  Code  Gb  usbuser.o [1]
USB_JigTestWrite        0x08038d45    0x62  Code  Gb  usbuser.o [1]
USB_JigTest_Flag        0x20013f20     0x1  Data  Gb  usbuser.o [1]
USB_ReadInterrupts      0x0803c39b     0xc  Code  Gb  stm32f4xx_ll_usb.o [1]
USB_ReadPacket          0x0803c377    0x24  Code  Gb  stm32f4xx_ll_usb.o [1]
USB_ResetPort           0x0803c523    0x3a  Code  Gb  stm32f4xx_ll_usb.o [1]
USB_SetCurrentMode      0x0803c2cb    0x32  Code  Gb  stm32f4xx_ll_usb.o [1]
USB_StopHost            0x0803ca99    0xae  Code  Gb  stm32f4xx_ll_usb.o [1]
USB_WritePacket         0x0803c341    0x36  Code  Gb  stm32f4xx_ll_usb.o [1]
Uart_RXDEnble           0x0801fab1    0x88  Code  Gb  uart.o [1]
UpDnRolling             0x08012875    0x2a  Code  Gb  gui.o [1]
Urc                     0x20012e64    0x78  Data  Gb  modem.o [1]
UreaAccControl          0x20013cac     0x4  Data  Gb  dtg.o [1]
UreaAccTest             0x0801a31d    0xee  Code  Gb  dtg.o [1]
UreaAlarm               0x20013ca4     0x4  Data  Gb  dtg.o [1]
UreaAlarmDisplay        0x0801048d   0x31c  Code  Gb  gui.o [1]
UreaAlarmLapTime        0x20013cb0     0x4  Data  Gb  dtg.o [1]
UreaBuzzerFlag          0x20013e9e     0x1  Data  Gb  dtg.o [1]
UreaBuzzerTime          0x20013cb4     0x4  Data  Gb  dtg.o [1]
UreaLevelAlarmEnableCnt
                        0x20013ce0     0x4  Data  Gb  dtg.o [1]
UreaQualAlarmEnableCnt  0x20013e52     0x2  Data  Gb  dtg.o [1]
UreaStatusAlarmEnableCnt
                        0x20013e54     0x2  Data  Gb  dtg.o [1]
UreaSysErrAlarmEnableCnt
                        0x20013e56     0x2  Data  Gb  dtg.o [1]
UreaTestFlag            0x20013cb8     0x4  Data  Gb  dtg.o [1]
Urea_QSensor_Use        0x20013e94     0x1  Data  Gb  can.o [1]
UsageFault_Handler      0x0803e14f    0x18  Code  Gb  stm32f4xx_it.o [1]
UsbFaultCnt             0x20013f28     0x1  Data  Gb  usbuser.o [1]
UsbFaultTimeCnt         0x20013e2c     0x4  Data  Gb  usbuser.o [1]
UsimState               0x20013ee7     0x1  Data  Gb  modem.o [1]
VRN                     0x20013b7c     0xc  Data  Gb  dtg.o [1]
VrnToCarRegNo           0x08020985   0x32a  Code  Gb  extern.o [1]
Wait_flag               0x20013f13     0x1  Data  Gb  test_jig.o [1]
WriteArray_i2c          0x08014987     0xc  Code  Gb  i2c_fram.o [1]
Write_I2C1_Byte         0x08028599    0x96  Code  Gb  i2c_gsensor.o [1]
Write_I2C2_Byte         0x08014511    0x8c  Code  Gb  i2c_fram.o [1]
_EncodingSb_Mbtowc      0x08031c2b    0x30  Code  Gb  xencoding_sb.o [3]
_EncodingSb_Mbtowc::initial
                        0x08031c68     0x8  Data  Lc  xencoding_sb.o [3]
_EncodingSb_Wctomb      0x08031c11    0x1a  Code  Gb  xencoding_sb.o [3]
_EncodingSb_Wctomb::initial
                        0x08031c60     0x8  Data  Lc  xencoding_sb.o [3]
_Error_Handler          0x08015959     0x8  Code  Gb  main.o [1]
_GenldFull              0x0802c409   0x254  Code  Lc  xprintffull.o [3]
_GetN                   0x08030ab1    0x22  Code  Lc  xscanffull.o [3]
_Getdst                 0x080321c1   0x132  Code  Gb  xgetdst.o [3]
_GetfldFull             0x08030cd5   0x10a  Code  Lc  xscanffull.o [3]
_GetfloatFull           0x08031293   0x4e8  Code  Lc  xscanffull.o [3]
_GetintFull             0x0803109b   0x1f2  Code  Lc  xscanffull.o [3]
_GetstrFull             0x08030de1   0x2b4  Code  Lc  xscanffull.o [3]
_Gettime                0x080319f7    0x42  Code  Gb  xgettime.o [3]
_IsdstStr               0x2000018c     0x4  Data  Gb  setlocale.o [3]
_Isdst_olddst           0x200001fc     0x4  Data  Lc  xisdst.o [3]
_Isdst_rules            0x20000200     0x4  Data  Gb  xisdstData.o [3]
_LdtobFull              0x0802bffd   0x406  Code  Lc  xprintffull.o [3]
_LitobFull              0x0802bef3   0x10a  Code  Lc  xprintffull.o [3]
_LocaleC_isalpha        0x080324ad    0x16  Code  Gb  xlocale_c.o [3]
_LocaleC_isspace        0x080324c3    0x14  Code  Gb  xlocale_c.o [3]
_LocaleC_tolower        0x08032c75     0xc  Code  Gb  xlocale_c.o [3]
_LocaleEncoding         0x080319d3     0xe  Code  Gb  setlocale.o [3]
_LocaleForCat           0x080319bf    0x14  Code  Gb  setlocale.o [3]
_LocaleReturnString     0x200001ac    0x50  Data  Lc  setlocale.o [3]
_Locale_Profile         0x20000190    0x1c  Data  Gb  setlocale.o [3]
_Locale_aeabi_lconv     0x2000014c    0x38  Data  Gb  localeconv.o [3]
_Locale_lconv           0x200000fc    0x50  Data  Gb  localeconv.o [3]
_Localtime_oldzone      0x200000f4     0x4  Data  Lc  localtim.o [3]
_Localtime_tzoff        0x200000f8     0x4  Data  Lc  localtim.o [3]
_Mbtowc                 0x0802f2d1    0x20  Code  Gb  xmbtowc.o [3]
_PrintfFull             0x0802b509   0x658  Code  Gb  xprintffull.o [3]
_PutcharsFull           0x0802c65d    0x2e  Code  Lc  xprintffull.o [3]
_PutstrFull             0x0802bbe7   0x306  Code  Lc  xprintffull.o [3]
_Rand_idx               0x20000044     0x4  Data  Lc  rand.o [3]
_Rand_rv                0x20000048    0x80  Data  Lc  rand.o [3]
_Randinit               0x2000003c     0x1  Data  Gb  rand.o [3]
_Randseed               0x20000040     0x4  Data  Gb  rand.o [3]
_SProut                 0x0801431b     0xa  Code  Gb  xsprout.o [3]
_SScin                  0x08014287    0x1e  Code  Gb  xsscin.o [3]
_ScanfFull              0x08030aed   0x1e2  Code  Gb  xscanffull.o [3]
_Stoflt                 0x0803260d   0x1d0  Code  Gb  xstoflt.o [3]
_Stopfx                 0x080324eb   0x122  Code  Gb  xstopfx.o [3]
_Stoxflt                0x08032a41   0x1fa  Code  Gb  xstoxflt.o [3]
_Stoxflt::digits        0x08032c44    0x18  Data  Lc  xstoxflt.o [3]
_Stoxflt::vals          0x08032c5c    0x18  Data  Lc  xstoxflt.o [3]
_Ttotm_ts               0x200000c8    0x2c  Data  Lc  xttotm.o [3]
_Tzoff                  0x0802cb61    0x9a  Code  Gb  localtim.o [3]
_TzoneStr               0x20000188     0x4  Data  Gb  setlocale.o [3]
_UngetN                 0x08030ad3    0x1a  Code  Lc  xscanffull.o [3]
_Wctomb                 0x08030861    0x1a  Code  Gb  xwctomb.o [3]
__aeabi_assert          0x0803d675    0x24  Code  Gb  ABIassert.o [6]
__aeabi_cdcmpeq         0x08032c81          Code  Gb  DblCmpEq.o [4]
__aeabi_cdcmple         0x080308c1          Code  Gb  DblCmpLe.o [4]
__aeabi_cdrcmple        0x080308f1          Code  Gb  DblCmpGe.o [4]
__aeabi_d2f             0x080320cd          Code  Gb  DblToFlt.o [4]
__aeabi_d2iz            0x08025ea5          Code  Gb  DblToI32.o [4]
__aeabi_d2uiz           0x08025ed1          Code  Gb  DblToI32.o [4]
__aeabi_dadd            0x0802ecb5          Code  Gb  DblAdd.o [4]
__aeabi_ddiv            0x0802e8dd          Code  Gb  DblDiv.o [4]
__aeabi_dmul            0x08025d01          Code  Gb  DblMul.o [4]
__aeabi_dsub            0x0802eb35          Code  Gb  DblSub.o [4]
__aeabi_errno_addr      0x0803248d     0x6  Code  Gb  errno.o [3]
__aeabi_i2d             0x0802d6bd          Code  Gb  I32ToDbl.o [4]
__aeabi_ldiv0           0x0803184d          Code  Gb  I64DivZer.o [5]
__aeabi_memclr4         0x0802e6d1          Code  Gb  ABImemclr4.o [5]
__aeabi_memset          0x08014325          Code  Gb  ABImemset.o [5]
__aeabi_ui2d            0x0802d6d1          Code  Gb  I32ToDbl.o [4]
__aeabi_uldivmod        0x0802c8b5          Code  Gb  I64DivMod.o [5]
__cmain                 0x0803fb01          Code  Gb  cmain.o [5]
__data_GetMemChunk      0x08031c79    0x2c  Code  Gb  xgetmemchunk.o [3]
__data_GetMemChunk::start
                        0x20013e30     0x4  Data  Lc  xgetmemchunk.o [3]
__exit                  0x08032499    0x14  Code  Gb  exit.o [6]
__getzone               0x080319ed     0x6  Code  Gb  getzone.o [3]
__gmtime32              0x0801cde5     0xa  Code  Gb  gmtime.o [3]
__iar_Daysto32          0x0802c9a5    0x3a  Code  Gb  xttotm.o [3]
__iar_Dnorm             0x0803087b    0x44  Code  Gb  xdnorm.o [4]
__iar_Dscale            0x08030921   0x114  Code  Gb  xdscale.o [4]
__iar_Dtentox           0x0803289d   0x140  Code  Gb  xdtento.o [4]
__iar_Dunscale          0x08032ca1    0x52  Code  Gb  xdunscal.o [4]
__iar_Errno             0x20000184     0x4  Data  Gb  errno.o [3]
__iar_Isdst32           0x08031851   0x148  Code  Gb  xisdst.o [3]
__iar_Locale_lconv_init
                        0x08030a35    0x3a  Code  Gb  localeconv.o [3]
__iar_Mbcurmax          0x0802f361     0xa  Code  Gb  xmbcurmax.o [3]
__iar_Memchr            0x0802f309          Code  Gb  memchr.o [5]
__iar_Memset            0x08014325          Code  Gb  ABImemset.o [5]
__iar_Memset4_word      0x08031b79          Code  Gb  ABImemset48.o [5]
__iar_Memset8_word      0x08031b79          Code  Gb  ABImemset48.o [5]
__iar_Memset_word       0x0801432d          Code  Gb  ABImemset.o [5]
__iar_Stod              0x0803d8e5     0x4  Code  Gb  xstod.o [4]
__iar_Stodx             0x0803d781   0x150  Code  Gb  xstod.o [4]
__iar_Stold             0x080320c9     0x4  Code  Gb  xstold.o [4]
__iar_Stoldx            0x08031f65   0x150  Code  Gb  xstold.o [4]
__iar_Stoll             0x08031daf     0x4  Code  Gb  xstoll.o [3]
__iar_Stollx            0x08031d0d    0xa2  Code  Gb  xstoll.o [3]
__iar_Stolx             0x08031a39    0x88  Code  Gb  xstol.o [3]
__iar_Stoul             0x08032439     0x4  Code  Gb  xstoul.o [3]
__iar_Stoull            0x08031f11     0x4  Code  Gb  xstoull.o [3]
__iar_Stoullx           0x08031db5   0x156  Code  Gb  xstoull.o [3]
__iar_Stoulx            0x080322f5   0x13e  Code  Gb  xstoul.o [3]
__iar_Strchr            0x0802f2f1          Code  Gb  strchr.o [5]
__iar_Strstr            0x0802e6a1    0x2e  Code  Gb  strstr.o [3]
__iar_Ttotm32           0x0802c9df   0x130  Code  Gb  xttotm.o [3]
__iar_TzoneStr_init     0x08031999    0x26  Code  Gb  setlocale.o [3]
__iar_Wctob             0x08031ca5    0x36  Code  Gb  xwctob.o [3]
__iar_d2uiz             0x08025edd          Code  Gb  DblToI32.o [4]
__iar_dadd              0x0802ecc9          Code  Gb  DblAdd.o [4]
__iar_data_init3        0x0803f401    0x28  Code  Gb  data_init.o [5]
__iar_dlfree            0x0803033f   0x51a  Code  Gb  dlmalloc.o [3]
__iar_dlib_perthread_access
                        0x0803184f     0x2  Code  Gb  xtls.o [3]
__iar_dlmalloc          0x08030089   0x2aa  Code  Gb  dlmalloc.o [3]
__iar_dsub              0x0802eb49          Code  Gb  DblSub.o [4]
__iar_dsubStart         0x0802eb5b          Code  Gb  DblSub.o [4]
__iar_init_vfp          0x0803f56d          Code  Gb  fpinit_M.o [4]
__iar_packbits_init_single3
                        0x0803f16d    0x38  Code  Gb  packbits_init_single.o [5]
__iar_program_start     0x08040ba5          Code  Gb  cstartup_M.o [5]
__iar_ui2d              0x0802d6d5          Code  Gb  I32ToDbl.o [4]
__iar_unaligned___aeabi_memcpy
                        0x080142a5          Code  Gb  ABImemcpy_unaligned.o [5]
__iar_unaligned___aeabi_memcpy4
                        0x080142c5          Code  Gb  ABImemcpy_unaligned.o [5]
__iar_unaligned___aeabi_memcpy8
                        0x080142c5          Code  Gb  ABImemcpy_unaligned.o [5]
__iar_unaligned_strcmp  0x0802c6ed          Code  Gb  strcmp_unaligned.o [5]
__iar_unaligned_strncpy
                        0x0803d6a9          Code  Gb  strncpy_unaligned.o [5]
__iar_vfp_atof          0x0803d699    0x10  Code  Gb  atof.o [4]
__iar_zero_init3        0x0803f07d    0x40  Code  Gb  zero_init3.o [5]
__low_level_init        0x0803fb1b     0x4  Code  Gb  low_level_init.o [3]
__millis                0x08024953     0x8  Code  Gb  ble.o [1]
__millisCounter         0x20013c58     0x4  Data  Gb  ble.o [1]
__mktime32              0x0801ccf1    0xf4  Code  Gb  mktime.o [3]
__vector_table          0x08010000          Data  Gb  startup_stm32f407xx.o [1]
_call_main              0x0803fb0d          Code  Gb  cmain.o [5]
_exit                   0x0803fb25          Code  Gb  cexit.o [5]
_gm_                    0x20011d78   0x1d8  Data  Lc  dlmalloc.o [3]
_main                   0x0803fb17          Code  Gb  cmain.o [5]
_millisCounter          0x20013cec     0x4  Data  Gb  extern.o [1]
_sysinfo                0x20012edc    0x6c  Data  Gb  sys_struct.o [1]
abort                   0x08031c71     0x6  Code  Gb  abort.o [3]
abs                     0x08014e75     0x8  Code  Gb  abs.o [3]
argument                0x200138f0    0x20  Data  Lc  cli.o [1]
atoi                    0x0803d779     0x8  Code  Gb  atoi.o [3]
bul_cho1                0x0803fbc0    0x18  Data  Gb  i2c_lcd.o [1]
bul_cho2                0x0803fbd8    0x18  Data  Gb  i2c_lcd.o [1]
bul_jong                0x0803fbf0    0x18  Data  Gb  i2c_lcd.o [1]
check_fs                0x080271f9    0x78  Code  Lc  ff.o [1]
chk_chr                 0x08025fe9    0x14  Code  Lc  ff.o [1]
clust2sect              0x08026125    0x18  Code  Lc  ff.o [1]
cmd_cnt                 0x20013c74     0x4  Data  Lc  cli.o [1]
cmd_confirm_run         0x0801ba95    0x58  Code  Gb  cli.o [1]
cmp_lfn                 0x080266cd    0xa6  Code  Lc  ff.o [1]
command_line            0x20013910    0x20  Data  Lc  cli.o [1]
command_stack           0x20012ce4    0x80  Data  Lc  cli.o [1]
commands                0x0803e91c    0x80  Data  Gb  cli.o [1]
comparison_num          0x0801b9bd    0x30  Code  Gb  cli.o [1]
crc16tab                0x0803e360   0x200  Data  Gb  extern.o [1]
create_chain            0x080263a3    0xcc  Code  Lc  ff.o [1]
create_name             0x08026e2d   0x2f6  Code  Lc  ff.o [1]
current_fuction_list    0x0801baed    0x78  Code  Gb  cli.o [1]
current_mode            0x20000204     0x1  Data  Lc  cli.o [1]
dbg_backupsramwr_test   0x080151bb    0x4a  Code  Gb  rtc.o [1]
dbg_backupsramwr_test::BS_RxB
                        0x20013078    0x64  Data  Lc  rtc.o [1]
dbg_fram_read           0x08014ca3    0xfa  Code  Gb  i2c_fram.o [1]
dbg_fram_write          0x08014d9d    0x80  Code  Gb  i2c_fram.o [1]
dbg_gps_view            0x0803d48b    0x1a  Code  Gb  nmeap.o [1]
ddd_View                0x0802c769    0x94  Code  Lc  debug.o [1]
ddd_on                  0x20013c88     0x4  Data  Gb  debug.o [1]
ddd_task                0x0802c7fd    0x10  Code  Gb  debug.o [1]
defaultTaskHandle       0x20013d3c     0x4  Data  Gb  main.o [1]
delay_ms                0x0801b8b7    0x16  Code  Gb  delay.o [1]
delay_us                0x0801b8a9     0xe  Code  Gb  delay.o [1]
digits                  0x0803243c    0x28  Data  Lc  xstoul.o [3]
digits                  0x08031f14    0x28  Data  Lc  xstoull.o [3]
dir_alloc               0x08026625    0x5a  Code  Lc  ff.o [1]
dir_find                0x08026a43   0x10e  Code  Lc  ff.o [1]
dir_next                0x08026513   0x112  Code  Lc  ff.o [1]
dir_read                0x0802694f    0xf4  Code  Lc  ff.o [1]
dir_register            0x08026b51   0x158  Code  Lc  ff.o [1]
dir_remove              0x08026ca9    0x5a  Code  Lc  ff.o [1]
dir_sdi                 0x0802646f    0xa4  Code  Lc  ff.o [1]
disk                    0x20013ba0     0xc  Data  Gb  ff_gen_drv.o [1]
disk_initialize         0x0802e7f7    0x32  Code  Gb  diskio.o [1]
disk_ioctl              0x0802e865    0x20  Code  Gb  diskio.o [1]
disk_read               0x0802e829    0x1e  Code  Gb  diskio.o [1]
disk_status             0x0802e7d9    0x1e  Code  Gb  diskio.o [1]
disk_write              0x0802e847    0x1e  Code  Gb  diskio.o [1]
div                     0x08030aa1     0xe  Code  Gb  div.o [3]
dl                      0x20013a40    0x18  Data  Gb  ble.o [1]
dmul                    0x08032841    0x5a  Code  Lc  xdtento.o [4]
dprint_buf              0x20011778   0x200  Data  Lc  cli.o [1]
dput_ch_console         0x0801b8cd    0x1a  Code  Gb  cli.o [1]
eLine                   0x08040c00     0x8  Data  Lc  cli.o [1]
eepread_multi           0x080148ed    0x8a  Code  Gb  i2c_fram.o [1]
eepwrite_multi          0x080147cb   0x122  Code  Gb  i2c_fram.o [1]
eng_font                0x0803e560   0x1e0  Data  Gb  i2c_lcd.o [1]
exit                    0x0803fb1f     0x4  Code  Gb  exit.o [3]
f_close                 0x08027c4f    0x28  Code  Gb  ff.o [1]
f_lseek                 0x08027c77   0x188  Code  Gb  ff.o [1]
f_mkdir                 0x08027fab   0x192  Code  Gb  ff.o [1]
f_mount                 0x0802758b    0x5a  Code  Gb  ff.o [1]
f_open                  0x08027605   0x20a  Code  Gb  ff.o [1]
f_opendir               0x08027dff    0x8c  Code  Gb  ff.o [1]
f_printf                0x080281c7   0x232  Code  Gb  ff.o [1]
f_read                  0x0802780f   0x1ae  Code  Gb  ff.o [1]
f_stat                  0x08027e8b    0x52  Code  Gb  ff.o [1]
f_sync                  0x08027bb1    0x9e  Code  Gb  ff.o [1]
f_unlink                0x08027edd    0xce  Code  Gb  ff.o [1]
f_write                 0x080279bd   0x1f4  Code  Gb  ff.o [1]
ff_convert              0x08025efd    0x44  Code  Gb  ff.o [1]
ff_wtoupper             0x08025f41    0x1e  Code  Gb  ff.o [1]
find_command            0x0801ba65    0x30  Code  Gb  cli.o [1]
find_volume             0x08027279   0x2d2  Code  Lc  ff.o [1]
fle                     0x0803f1a4    0x34  Data  Lc  cli.o [1]
fls                     0x0803f134    0x38  Data  Lc  cli.o [1]
follow_path             0x08027123    0x8c  Code  Lc  ff.o [1]
fp                      0x20011328   0x228  Data  Gb  dtg.o [1]
gen_numname             0x0802688d    0xa2  Code  Lc  ff.o [1]
get_fat                 0x0802613d    0xca  Code  Lc  ff.o [1]
get_fattime             0x0802e899    0x32  Code  Gb  fatfs.o [1]
get_fileinfo            0x08026d03   0x12a  Code  Lc  ff.o [1]
get_ldnumber            0x080271af    0x4a  Code  Lc  ff.o [1]
getcrc16                0x080205bd    0x2a  Code  Gb  extern.o [1]
getcrc16c               0x080205e7    0x1a  Code  Gb  extern.o [1]
getint                  0x08032195    0x2c  Code  Lc  xgetdst.o [3]
gga                     0x20013818    0x38  Data  Gb  nmeap.o [1]
gmtime_conv             0x080150c3    0x5c  Code  Gb  rtc.o [1]
gpgga_callout           0x0803d363    0x12  Code  Lc  nmeap.o [1]
gpgsa_callout           0x0803d3e7    0x12  Code  Lc  nmeap.o [1]
gprmc_callout           0x0803d3b3    0x12  Code  Lc  nmeap.o [1]
gps_on                  0x20013f0b     0x1  Data  Gb  nmeap.o [1]
gsa                     0x20013a70    0x18  Data  Gb  nmeap.o [1]
hUsbHostFS              0x2001073c   0x3c8  Data  Gb  usb_host.o [1]
hadc1                   0x200131ec    0x48  Data  Gb  adc.o [1]
hangul_code             0x080359f4  0x125c  Data  Gb  ff.o [1]
hcan1                   0x20013234    0x44  Data  Gb  can.o [1]
hcan2                   0x20013278    0x44  Data  Gb  can.o [1]
hdma_adc1               0x200130dc    0x60  Data  Gb  adc.o [1]
hhcd_USB_OTG_FS         0x20010e5c   0x298  Data  Gb  usbh_conf.o [1]
hiwdg                   0x20013bb8     0xc  Data  Gb  main.o [1]
hnand1                  0x2001333c    0x40  Data  Gb  fsmc_nand.o [1]
hrtc                    0x200139b0    0x20  Data  Gb  rtc.o [1]
htim1                   0x200136b8    0x3c  Data  Gb  stm32f4xx_hal_timebase_TIM.o [1]
htim2                   0x200136f4    0x3c  Data  Gb  timer.o [1]
htim3                   0x20013730    0x3c  Data  Gb  timer.o [1]
htim4                   0x2001376c    0x3c  Data  Gb  timer.o [1]
huart1                  0x200134bc    0x40  Data  Gb  uart.o [1]
huart2                  0x200134fc    0x40  Data  Gb  uart.o [1]
huart3                  0x2001353c    0x40  Data  Gb  uart.o [1]
huart4                  0x2001357c    0x40  Data  Gb  uart.o [1]
huart5                  0x200135bc    0x40  Data  Gb  uart.o [1]
huart6                  0x200135fc    0x40  Data  Gb  uart.o [1]
i2c_read                0x08014645    0xfc  Code  Gb  i2c_fram.o [1]
i2c_read::__func__      0x08040910     0xc  Data  Lc  i2c_fram.o [1]
i2c_write               0x08014741    0x8a  Code  Gb  i2c_fram.o [1]
i2c_write::__func__     0x0804091c     0xc  Data  Lc  i2c_fram.o [1]
inHandlerMode           0x0801b19b    0x12  Code  Lc  cmsis_os.o [1]
init__millis            0x0802495b     0xa  Code  Gb  ble.o [1]
init_millis             0x080206e5     0xa  Code  Gb  extern.o [1]
init_mparams            0x0802f389    0x32  Code  Lc  dlmalloc.o [3]
init_top                0x0802f3bb    0x34  Code  Lc  dlmalloc.o [3]
isalnum                 0x0803d741    0x1a  Code  Gb  isalnum.o [3]
isalpha                 0x08031ce5    0x14  Code  Gb  isxxx.o [3]
isspace                 0x08031cf9    0x14  Code  Gb  isxxx.o [3]
isxdigit                0x0803d75b    0x1e  Code  Gb  isxdigit.o [3]
kprint_buf              0x20011978   0x200  Data  Lc  cli.o [1]
ks_code_conversion      0x08013f39    0x42  Code  Gb  i2c_lcd.o [1]
lcd_backlight           0x08013bc1    0x2c  Code  Gb  i2c_lcd.o [1]
lcd_big_printf          0x0801423f    0x48  Code  Gb  i2c_lcd.o [1]
lcd_bitmap              0x08013d0b    0x74  Code  Gb  i2c_lcd.o [1]
lcd_clear               0x08013b89    0x38  Code  Gb  i2c_lcd.o [1]
lcd_contrast            0x08013b3d    0x4c  Code  Gb  i2c_lcd.o [1]
lcd_delay_ms            0x080139a7    0x16  Code  Gb  i2c_lcd.o [1]
lcd_delay_us            0x08013999     0xe  Code  Gb  i2c_lcd.o [1]
lcd_draw_rect           0x08013d7f    0x3a  Code  Gb  i2c_lcd.o [1]
lcd_fill_box            0x08013db9    0x54  Code  Gb  i2c_lcd.o [1]
lcd_init                0x080139bd    0xc8  Code  Gb  i2c_lcd.o [1]
lcd_printf              0x08013e87    0x48  Code  Gb  i2c_lcd.o [1]
lcd_putc_big            0x08013ecf    0x6a  Code  Gb  i2c_lcd.o [1]
lcd_putc_han            0x08013f7b   0x14e  Code  Gb  i2c_lcd.o [1]
lcd_puts                0x08013e0d    0x7a  Code  Gb  i2c_lcd.o [1]
lcd_puts_big            0x08014111    0x9a  Code  Gb  i2c_lcd.o [1]
lcd_puts_big_len        0x080141ab    0x94  Code  Gb  i2c_lcd.o [1]
lcd_refresh             0x08013aad    0x90  Code  Gb  i2c_lcd.o [1]
lcd_reset               0x08013a85    0x28  Code  Gb  i2c_lcd.o [1]
lcd_send_cmd            0x08013c5d    0x44  Code  Gb  i2c_lcd.o [1]
lcd_send_data           0x08013ca1    0x44  Code  Gb  i2c_lcd.o [1]
lcd_set_xy              0x08013ce5    0x26  Code  Gb  i2c_lcd.o [1]
lcd_write               0x08013bed    0x70  Code  Gb  i2c_lcd.o [1]
ld_clust                0x0802667f    0x26  Code  Lc  ff.o [1]
ld_dword                0x08025f6d    0x18  Code  Lc  ff.o [1]
ld_word                 0x08025f5f     0xe  Code  Lc  ff.o [1]
lmos                    0x0802cb30    0x18  Data  Lc  xttotm.o [3]
localeconv              0x08030a6f    0x16  Code  Gb  localeconv.o [3]
m_ucCheckSum            0x20013e40     0x2  Data  Gb  ble.o [1]
m_ucRxDataCnt           0x20013e3e     0x2  Data  Gb  ble.o [1]
m_ucRxLength            0x20013e3c     0x2  Data  Gb  ble.o [1]
m_ucRxStep              0x20013e8e     0x1  Data  Gb  ble.o [1]
main                    0x08015289   0x1ac  Code  Gb  main.o [1]
makeFreeRtosPriority    0x0801b189    0x12  Code  Lc  cmsis_os.o [1]
mem_cmp                 0x08025fcb    0x1e  Code  Lc  ff.o [1]
mem_cpy                 0x08025fab    0x14  Code  Lc  ff.o [1]
mem_set                 0x08025fbf     0xc  Code  Lc  ff.o [1]
memchr                  0x0802f309          Code  Gb  memchr.o [5]
millis                  0x080206dd     0x8  Code  Gb  extern.o [1]
mos                     0x0802cb48    0x18  Data  Lc  xttotm.o [3]
move_window             0x08026051    0x3c  Code  Lc  ff.o [1]
mparams                 0x20013a88    0x18  Data  Lc  dlmalloc.o [3]
myTask01Handle          0x20013d40     0x4  Data  Gb  main.o [1]
myTask02Handle          0x20013d44     0x4  Data  Gb  main.o [1]
myTask03Handle          0x20013d48     0x4  Data  Gb  main.o [1]
myTask04Handle          0x20013d4c     0x4  Data  Gb  main.o [1]
myTask05Handle          0x20013d50     0x4  Data  Gb  main.o [1]
myTask06Handle          0x20013d54     0x4  Data  Gb  main.o [1]
myTask07Handle          0x20013d58     0x4  Data  Gb  main.o [1]
myTask08Handle          0x20013d5c     0x4  Data  Gb  main.o [1]
myTask09Handle          0x20013d60     0x4  Data  Gb  main.o [1]
myTimer01Handle         0x20013d64     0x4  Data  Gb  main.o [1]
ndigs                   0x08032464    0x28  Data  Lc  xstoul.o [3]
ndigs                   0x08031f3c    0x28  Data  Lc  xstoull.o [3]
nmea                    0x20010b04   0x358  Data  Lc  nmeap.o [1]
nmeap_addParser         0x0803cd47    0x72  Code  Gb  nmeap.o [1]
nmeap_altitude          0x0803cd11    0x36  Code  Gb  nmeap.o [1]
nmeap_gpgga             0x0803d0d1    0xe0  Code  Gb  nmeap.o [1]
nmeap_gpgsa             0x0803d28f    0x96  Code  Gb  nmeap.o [1]
nmeap_gprmc             0x0803d1b1    0xde  Code  Gb  nmeap.o [1]
nmeap_latitude          0x0803cb49    0xe2  Code  Gb  nmeap.o [1]
nmeap_longitude         0x0803cc2d    0xe2  Code  Gb  nmeap.o [1]
nmeap_parse             0x0803ce99   0x238  Code  Gb  nmeap.o [1]
nmeap_process           0x0803ce1d    0x7c  Code  Gb  nmeap.o [1]
nmeap_tokenize          0x0803cdc1    0x5c  Code  Gb  nmeap.o [1]
open_append             0x080283f9    0x30  Code  Gb  ff.o [1]
osDelay                 0x0801b1e5    0x16  Code  Gb  cmsis_os.o [1]
osKernelStart           0x0801b1ad     0xa  Code  Gb  cmsis_os.o [1]
osSemaphoreCreate       0x0801b289    0x2e  Code  Gb  cmsis_os.o [1]
osSemaphoreRelease      0x0801b32f    0x52  Code  Gb  cmsis_os.o [1]
osSemaphoreWait         0x0801b2b7    0x78  Code  Gb  cmsis_os.o [1]
osSystickHandler        0x0801b381    0x10  Code  Gb  cmsis_os.o [1]
osThreadCreate          0x0801b1b7    0x2e  Code  Gb  cmsis_os.o [1]
osTimerCreate           0x0801b1fb    0x20  Code  Gb  cmsis_os.o [1]
osTimerStart            0x0801b21b    0x6a  Code  Gb  cmsis_os.o [1]
os_semaphore_def_BSP_BKSramSem
                        0x08040e0c     0x4  Data  Gb  rtc.o [1]
os_semaphore_def_FSMC_NandSem
                        0x08040df4     0x4  Data  Gb  fsmc_nand.o [1]
os_semaphore_def_I2C_FramSem
                        0x08040dfc     0x4  Data  Gb  i2c_fram.o [1]
os_semaphore_def_SpiFlashDevSem
                        0x08040e10     0x4  Data  Gb  spi_flash.o [1]
os_semaphore_def_sem_0  0x08040dec     0x4  Data  Gb  cli.o [1]
os_semaphore_def_sem_1  0x08040df0     0x4  Data  Gb  cli.o [1]
os_semaphore_def_sem_lcd
                        0x08040e00     0x4  Data  Gb  i2c_lcd.o [1]
parsing_command         0x0801bb65    0xa0  Code  Gb  cli.o [1]
pcInterruptPriorityRegisters
                        0x08040e08     0x4  Data  Lc  port.o [1]
perPedal_ADC            0x20013cbc     0x4  Data  Gb  dtg.o [1]
pick_lfn                0x08026773    0x84  Code  Lc  ff.o [1]
pows                    0x080329f8    0x48  Data  Lc  xdtento.o [4]
prepend_alloc           0x0802f3ef   0x372  Code  Lc  dlmalloc.o [3]
print_gga               0x0803d325    0x3e  Code  Lc  nmeap.o [1]
print_gsa               0x0803d3c5    0x22  Code  Lc  nmeap.o [1]
print_rmc               0x0803d375    0x3e  Code  Lc  nmeap.o [1]
printd                  0x0801b8f1    0x4a  Code  Gb  cli.o [1]
printk                  0x0801b93b    0x70  Code  Gb  cli.o [1]
prompt                  0x0801b9ed    0x36  Code  Gb  cli.o [1]
prompt_buffer           0x200138d0    0x20  Data  Lc  cli.o [1]
prvAddCurrentTaskToDelayedList
                        0x080216f1    0x80  Code  Lc  tasks.o [1]
prvAddNewTaskToReadyList
                        0x08020e01    0xc0  Code  Lc  tasks.o [1]
prvCheckForValidListAndQueue
                        0x080296ff    0x4c  Code  Lc  timers.o [1]
prvCheckTasksWaitingTermination
                        0x08021495    0x64  Code  Lc  tasks.o [1]
prvCopyDataFromQueue    0x08029ec7    0x2a  Code  Lc  queue.o [1]
prvCopyDataToQueue      0x08029e41    0x86  Code  Lc  queue.o [1]
prvDeleteTCB            0x080214f9    0x12  Code  Lc  tasks.o [1]
prvGetNextExpireTime    0x0802951d    0x28  Code  Lc  timers.o [1]
prvHeapInit             0x0802e527    0x64  Code  Lc  heap_4.o [1]
prvIdleTask             0x08021405    0x28  Code  Lc  tasks.o [1]
prvInitialiseNewQueue   0x08029851    0x22  Code  Lc  queue.o [1]
prvInitialiseNewTask    0x08020d4f    0xb2  Code  Lc  tasks.o [1]
prvInitialiseNewTimer   0x0802937f    0x50  Code  Lc  timers.o [1]
prvInitialiseTaskLists  0x08021431    0x56  Code  Lc  tasks.o [1]
prvInsertBlockIntoFreeList
                        0x0802e58b    0x5c  Code  Lc  heap_4.o [1]
prvInsertTimerInActiveList
                        0x0802956d    0x3e  Code  Lc  timers.o [1]
prvIsQueueEmpty         0x08029f5f    0x1c  Code  Lc  queue.o [1]
prvIsQueueFull          0x08029f7b    0x1e  Code  Lc  queue.o [1]
prvProcessExpiredTimer  0x0802943d    0x5a  Code  Lc  timers.o [1]
prvProcessReceivedCommands
                        0x080295ab    0xd6  Code  Lc  timers.o [1]
prvProcessTimerOrBlockTask
                        0x080294ad    0x70  Code  Lc  timers.o [1]
prvResetNextTaskUnblockTime
                        0x0802150b    0x28  Code  Lc  tasks.o [1]
prvSampleTimeNow        0x08029545    0x28  Code  Lc  timers.o [1]
prvSampleTimeNow::xLastTime
                        0x20013e20     0x4  Data  Lc  timers.o [1]
prvSwitchTimerLists     0x08029681    0x7e  Code  Lc  timers.o [1]
prvTaskExitError        0x0802a039    0x2a  Code  Lc  port.o [1]
prvTimerCallback        0x08015899    0x16  Code  Gb  main.o [1]
prvTimerTask            0x08029499    0x14  Code  Lc  timers.o [1]
prvUnlockQueue          0x08029ef1    0x6e  Code  Lc  queue.o [1]
put_ch_console          0x0801b8e7     0xa  Code  Gb  cli.o [1]
put_fat                 0x08026207   0x112  Code  Lc  ff.o [1]
put_lfn                 0x080267f7    0x88  Code  Lc  ff.o [1]
putc_bfd                0x0802813d    0x4e  Code  Lc  ff.o [1]
putc_flush              0x0802818b    0x30  Code  Lc  ff.o [1]
putc_init               0x080281bb     0xc  Code  Lc  ff.o [1]
pvPortMalloc            0x0802e3a5   0x10c  Code  Gb  heap_4.o [1]
pvTaskIncrementMutexHeldCount
                        0x080216b9    0x1e  Code  Gb  tasks.o [1]
pxCurrentTCB            0x20013dcc     0x4  Data  Gb  tasks.o [1]
pxCurrentTimerList      0x20013e10     0x4  Data  Lc  timers.o [1]
pxDelayedTaskList       0x20013dd0     0x4  Data  Lc  tasks.o [1]
pxEnd                   0x20013d24     0x4  Data  Lc  heap_4.o [1]
pxOverflowDelayedTaskList
                        0x20013dd4     0x4  Data  Lc  tasks.o [1]
pxOverflowTimerList     0x20013e14     0x4  Data  Lc  timers.o [1]
pxPortInitialiseStack   0x0802a011    0x28  Code  Gb  port.o [1]
pxReadyTasksLists       0x200127e8    0xf0  Data  Lc  tasks.o [1]
rand                    0x0802e6f9    0xe0  Code  Gb  rand.o [3]
read_from_backup_sram   0x0801511f    0x9c  Code  Gb  rtc.o [1]
read_from_backup_sram::__func__
                        0x0803fde8    0x18  Data  Lc  rtc.o [1]
remove_chain            0x08026319    0x8a  Code  Lc  ff.o [1]
retUSBH                 0x20013ea8     0x1  Data  Gb  fatfs.o [1]
rmc                     0x20013850    0x38  Data  Gb  nmeap.o [1]
rtc_days_in_month       0x0804049c    0x10  Data  Gb  gui.o [1]
save_fdir               0x20013b68    0x14  Data  Gb  usbuser.o [1]
save_fname              0x200137a8    0x3c  Data  Gb  usbuser.o [1]
segment_holding         0x0802f36d    0x1c  Code  Lc  dlmalloc.o [3]
sem_lcd                 0x20013d38     0x4  Data  Gb  i2c_lcd.o [1]
sendATcommand           0x08015cd7    0xb2  Code  Gb  modem.o [1]
setPWM                  0x0801b7d1    0x92  Code  Gb  timer.o [1]
sprintf                 0x080217bd    0x34  Code  Gb  sprintf.o [3]
srand                   0x0802e6d9    0x20  Code  Gb  srand.o [3]
sscanf                  0x0802c6a9    0x24  Code  Gb  sscanf.o [3]
st_clust                0x080266a5    0x28  Code  Lc  ff.o [1]
st_dword                0x08025f93    0x18  Code  Lc  ff.o [1]
st_word                 0x08025f85     0xe  Code  Lc  ff.o [1]
strchr                  0x0802f2f1          Code  Gb  strchr.o [5]
strlen                  0x0802c731          Code  Gb  strlen.o [5]
strncmp                 0x0803d715    0x2c  Code  Gb  strncmp.o [3]
strstr                  0x080217b5     0x8  Code  Gb  modem_sms.o [1]
struct_init             0x08020375    0x56  Code  Gb  sys_struct.o [1]
sum_sfn                 0x0802692f    0x20  Code  Lc  ff.o [1]
sync_fs                 0x0802608d    0x98  Code  Lc  ff.o [1]
sync_window             0x08025ffd    0x54  Code  Lc  ff.o [1]
sys_alloc               0x0802f761   0x388  Code  Lc  dlmalloc.o [3]
sys_struct_init         0x080203cb     0xa  Code  Gb  sys_struct.o [1]
t_500mSec               0x20013ece     0x1  Data  Gb  main.o [1]
table_cho               0x0803fba8    0x18  Data  Gb  i2c_lcd.o [1]
table_jong              0x0803f6b8    0x20  Data  Gb  i2c_lcd.o [1]
table_joong             0x0803f698    0x20  Data  Gb  i2c_lcd.o [1]
tmalloc_large           0x0802faf5   0x380  Code  Lc  dlmalloc.o [3]
tmalloc_small           0x0802fe75   0x206  Code  Lc  dlmalloc.o [3]
tolower                 0x080324d7    0x14  Code  Gb  tolower.o [3]
uart_console            0x0801bc15   0x222  Code  Gb  cli.o [1]
uart_console::esc_mode  0x20013e95     0x1  Data  Lc  cli.o [1]
uart_console::line_ptr  0x20013c84     0x4  Data  Lc  cli.o [1]
ucHeap                  0x20006208  0x4000  Data  Lc  heap_4.o [1]
ucMaxSysCallPriority    0x20013f0c     0x1  Data  Lc  port.o [1]
uhPrescalerValue        0x20013e0c     0x4  Data  Gb  timer.o [1]
ulArgumentCount         0x20013c80     0x4  Data  Lc  cli.o [1]
ulMaxPRIGROUPValue      0x20013db0     0x4  Data  Lc  port.o [1]
uwTick                  0x20013dc0     0x4  Data  Gb  stm32f4xx_hal.o [1]
uxCriticalNesting       0x20000000     0x4  Data  Lc  port.o [1]
uxCurrentNumberOfTasks  0x20013ddc     0x4  Data  Lc  tasks.o [1]
uxDeletedTasksWaitingCleanUp
                        0x20013dd8     0x4  Data  Lc  tasks.o [1]
uxListRemove            0x0802e677    0x26  Code  Gb  list.o [1]
uxPendedTicks           0x20013dec     0x4  Data  Lc  tasks.o [1]
uxSchedulerSuspended    0x20013e04     0x4  Data  Lc  tasks.o [1]
uxTaskNumber            0x20013df8     0x4  Data  Lc  tasks.o [1]
uxTopReadyPriority      0x20013de4     0x4  Data  Lc  tasks.o [1]
vApplicationIdleHook    0x0802e69d     0x2  Code  Wk  freertos.o [1]
vApplicationStackOverflowHook
                        0x0802e69f     0x2  Code  Wk  freertos.o [1]
vListInitialise         0x0802e605    0x1e  Code  Gb  list.o [1]
vListInitialiseItem     0x0802e623     0x6  Code  Gb  list.o [1]
vListInsert             0x0802e641    0x36  Code  Gb  list.o [1]
vListInsertEnd          0x0802e629    0x18  Code  Gb  list.o [1]
vPortEnableVFP          0x0802ee29          Code  Gb  portasm.o [1]
vPortEnterCritical      0x0802a12f    0x3a  Code  Gb  port.o [1]
vPortExitCritical       0x0802a169    0x32  Code  Gb  port.o [1]
vPortFree               0x0802e4b1    0x76  Code  Gb  heap_4.o [1]
vPortSetupTimerInterrupt
                        0x0802a1c3    0x1a  Code  Wk  port.o [1]
vPortStartFirstTask     0x0802ee11          Code  Gb  portasm.o [1]
vPortValidateInterruptPriority
                        0x0802a1dd    0x4a  Code  Gb  port.o [1]
vQueueAddToRegistry     0x08029f99    0x24  Code  Gb  queue.o [1]
vQueueWaitForMessageRestricted
                        0x08029fc5    0x4a  Code  Gb  queue.o [1]
vTaskDelay              0x08020ec1    0x4c  Code  Gb  tasks.o [1]
vTaskMissedYield        0x080213f5     0xa  Code  Gb  tasks.o [1]
vTaskPlaceOnEventList   0x08021243    0x2e  Code  Gb  tasks.o [1]
vTaskPlaceOnEventListRestricted
                        0x08021271    0x38  Code  Gb  tasks.o [1]
vTaskPriorityInherit    0x08021555    0xa8  Code  Gb  tasks.o [1]
vTaskSetTimeOutState    0x08021347    0x26  Code  Gb  tasks.o [1]
vTaskStartScheduler     0x08020f0d    0x6e  Code  Gb  tasks.o [1]
vTaskSuspendAll         0x08020f7b    0x10  Code  Gb  tasks.o [1]
vTaskSwitchContext      0x080211a3    0xa0  Code  Gb  tasks.o [1]
validate                0x0802754b    0x40  Code  Lc  ff.o [1]
vsprintf                0x0801b87d    0x2c  Code  Gb  vsprintf.o [3]
writeArray              0x20000028    0x14  Data  Gb  usbuser.o [1]
xActiveTimerList1       0x20013b2c    0x14  Data  Lc  timers.o [1]
xActiveTimerList2       0x20013b40    0x14  Data  Lc  timers.o [1]
xBlockAllocatedBit      0x20013d30     0x4  Data  Lc  heap_4.o [1]
xDelayedTaskList1       0x20013ac8    0x14  Data  Lc  tasks.o [1]
xDelayedTaskList2       0x20013adc    0x14  Data  Lc  tasks.o [1]
xFreeBytesRemaining     0x20013d28     0x4  Data  Lc  heap_4.o [1]
xHeapStructSize         0x08040df8     0x4  Data  Lc  heap_4.o [1]
xIdleTaskHandle         0x20013e00     0x4  Data  Lc  tasks.o [1]
xMinimumEverFreeBytesRemaining
                        0x20013d2c     0x4  Data  Lc  heap_4.o [1]
xNextTaskUnblockTime    0x20013dfc     0x4  Data  Lc  tasks.o [1]
xNumOfOverflows         0x20013df4     0x4  Data  Lc  tasks.o [1]
xPendingReadyList       0x20013af0    0x14  Data  Lc  tasks.o [1]
xPortStartScheduler     0x0802a063    0xcc  Code  Gb  port.o [1]
xPortSysTickHandler     0x0802a19b    0x28  Code  Gb  port.o [1]
xQueueCreateCountingSemaphore
                        0x08029873    0x3c  Code  Gb  queue.o [1]
xQueueGenericCreate     0x08029807    0x4a  Code  Gb  queue.o [1]
xQueueGenericReceive    0x08029bd1   0x1be  Code  Gb  queue.o [1]
xQueueGenericReset      0x08029775    0x92  Code  Gb  queue.o [1]
xQueueGenericSend       0x080298af   0x196  Code  Gb  queue.o [1]
xQueueGenericSendFromISR
                        0x08029a45    0xd8  Code  Gb  queue.o [1]
xQueueGiveFromISR       0x08029b1d    0xb4  Code  Gb  queue.o [1]
xQueueReceiveFromISR    0x08029d8f    0xb2  Code  Gb  queue.o [1]
xQueueRegistry          0x2001347c    0x40  Data  Gb  queue.o [1]
xSchedulerRunning       0x20013de8     0x4  Data  Lc  tasks.o [1]
xStart                  0x20013c00     0x8  Data  Lc  heap_4.o [1]
xSuspendedTaskList      0x20013b18    0x14  Data  Lc  tasks.o [1]
xTaskCheckForTimeOut    0x08021375    0x80  Code  Gb  tasks.o [1]
xTaskCreate             0x08020cd9    0x76  Code  Gb  tasks.o [1]
xTaskGetSchedulerState  0x08021533    0x20  Code  Gb  tasks.o [1]
xTaskGetTickCount       0x08021085     0x8  Code  Gb  tasks.o [1]
xTaskIncrementTick      0x0802108d   0x116  Code  Gb  tasks.o [1]
xTaskPriorityDisinherit
                        0x080215fd    0xb2  Code  Gb  tasks.o [1]
xTaskRemoveFromEventList
                        0x080212c5    0x82  Code  Gb  tasks.o [1]
xTaskResumeAll          0x08020f8b    0xfa  Code  Gb  tasks.o [1]
xTasksWaitingTermination
                        0x20013b04    0x14  Data  Lc  tasks.o [1]
xTickCount              0x20013de0     0x4  Data  Lc  tasks.o [1]
xTimerCreate            0x0802934b    0x34  Code  Gb  timers.o [1]
xTimerCreateTimerTask   0x08029305    0x46  Code  Gb  timers.o [1]
xTimerGenericCommand    0x080293cf    0x6e  Code  Gb  timers.o [1]
xTimerQueue             0x20013e18     0x4  Data  Lc  timers.o [1]
xTimerTaskHandle        0x20013e1c     0x4  Data  Lc  timers.o [1]
xYieldPending           0x20013df0     0x4  Data  Lc  tasks.o [1]


[1] = E:\Today\240513_Limiter_Release_0513\V3.3.2.3_CC_Limiter_V2.0_ADC\EWARM\Mini_DTG\Obj
[2] = command line
[3] = dl7M_tlf.a
[4] = m7M_tls.a
[5] = rt7M_tl.a
[6] = shb_l.a

  167 157 bytes of readonly  code memory
   33 385 bytes of readonly  data memory
  100 904 bytes of readwrite data memory

Errors: none
Warnings: none
